Archive member included to satisfy reference by file (symbol)

/usr/lib/gcc/arm-none-eabi/4.9.3/../../../arm-none-eabi/lib/armv7e-m/fpu/libm.a(lib_a-sf_fpclassify.o)
                              build/obj/attitude.o (symbol from plugin) (__fpclassifyf)
/usr/lib/gcc/arm-none-eabi/4.9.3/../../../arm-none-eabi/lib/armv7e-m/fpu/libm.a(lib_a-sf_cos.o)
                              /tmp/cc5Oa950.ltrans11.ltrans.o (cosf)
/usr/lib/gcc/arm-none-eabi/4.9.3/../../../arm-none-eabi/lib/armv7e-m/fpu/libm.a(lib_a-sf_sin.o)
                              /tmp/cc5Oa950.ltrans11.ltrans.o (sinf)
/usr/lib/gcc/arm-none-eabi/4.9.3/../../../arm-none-eabi/lib/armv7e-m/fpu/libm.a(lib_a-sf_tan.o)
                              /tmp/cc5Oa950.ltrans8.ltrans.o (tanf)
/usr/lib/gcc/arm-none-eabi/4.9.3/../../../arm-none-eabi/lib/armv7e-m/fpu/libm.a(lib_a-wf_asin.o)
                              /tmp/cc5Oa950.ltrans11.ltrans.o (asinf)
/usr/lib/gcc/arm-none-eabi/4.9.3/../../../arm-none-eabi/lib/armv7e-m/fpu/libm.a(lib_a-wf_atan2.o)
                              /tmp/cc5Oa950.ltrans11.ltrans.o (atan2f)
/usr/lib/gcc/arm-none-eabi/4.9.3/../../../arm-none-eabi/lib/armv7e-m/fpu/libm.a(lib_a-wf_sqrt.o)
                              /tmp/cc5Oa950.ltrans11.ltrans.o (sqrtf)
/usr/lib/gcc/arm-none-eabi/4.9.3/../../../arm-none-eabi/lib/armv7e-m/fpu/libm.a(lib_a-ef_asin.o)
                              /usr/lib/gcc/arm-none-eabi/4.9.3/../../../arm-none-eabi/lib/armv7e-m/fpu/libm.a(lib_a-wf_asin.o) (__ieee754_asinf)
/usr/lib/gcc/arm-none-eabi/4.9.3/../../../arm-none-eabi/lib/armv7e-m/fpu/libm.a(lib_a-ef_atan2.o)
                              /usr/lib/gcc/arm-none-eabi/4.9.3/../../../arm-none-eabi/lib/armv7e-m/fpu/libm.a(lib_a-wf_atan2.o) (__ieee754_atan2f)
/usr/lib/gcc/arm-none-eabi/4.9.3/../../../arm-none-eabi/lib/armv7e-m/fpu/libm.a(lib_a-ef_rem_pio2.o)
                              /usr/lib/gcc/arm-none-eabi/4.9.3/../../../arm-none-eabi/lib/armv7e-m/fpu/libm.a(lib_a-sf_cos.o) (__ieee754_rem_pio2f)
/usr/lib/gcc/arm-none-eabi/4.9.3/../../../arm-none-eabi/lib/armv7e-m/fpu/libm.a(lib_a-ef_sqrt.o)
                              /usr/lib/gcc/arm-none-eabi/4.9.3/../../../arm-none-eabi/lib/armv7e-m/fpu/libm.a(lib_a-wf_sqrt.o) (__ieee754_sqrtf)
/usr/lib/gcc/arm-none-eabi/4.9.3/../../../arm-none-eabi/lib/armv7e-m/fpu/libm.a(lib_a-kf_cos.o)
                              /usr/lib/gcc/arm-none-eabi/4.9.3/../../../arm-none-eabi/lib/armv7e-m/fpu/libm.a(lib_a-sf_cos.o) (__kernel_cosf)
/usr/lib/gcc/arm-none-eabi/4.9.3/../../../arm-none-eabi/lib/armv7e-m/fpu/libm.a(lib_a-kf_rem_pio2.o)
                              /usr/lib/gcc/arm-none-eabi/4.9.3/../../../arm-none-eabi/lib/armv7e-m/fpu/libm.a(lib_a-ef_rem_pio2.o) (__kernel_rem_pio2f)
/usr/lib/gcc/arm-none-eabi/4.9.3/../../../arm-none-eabi/lib/armv7e-m/fpu/libm.a(lib_a-kf_sin.o)
                              /usr/lib/gcc/arm-none-eabi/4.9.3/../../../arm-none-eabi/lib/armv7e-m/fpu/libm.a(lib_a-sf_cos.o) (__kernel_sinf)
/usr/lib/gcc/arm-none-eabi/4.9.3/../../../arm-none-eabi/lib/armv7e-m/fpu/libm.a(lib_a-kf_tan.o)
                              /usr/lib/gcc/arm-none-eabi/4.9.3/../../../arm-none-eabi/lib/armv7e-m/fpu/libm.a(lib_a-sf_tan.o) (__kernel_tanf)
/usr/lib/gcc/arm-none-eabi/4.9.3/../../../arm-none-eabi/lib/armv7e-m/fpu/libm.a(lib_a-s_lib_ver.o)
                              /usr/lib/gcc/arm-none-eabi/4.9.3/../../../arm-none-eabi/lib/armv7e-m/fpu/libm.a(lib_a-wf_asin.o) (__fdlib_version)
/usr/lib/gcc/arm-none-eabi/4.9.3/../../../arm-none-eabi/lib/armv7e-m/fpu/libm.a(lib_a-s_matherr.o)
                              /usr/lib/gcc/arm-none-eabi/4.9.3/../../../arm-none-eabi/lib/armv7e-m/fpu/libm.a(lib_a-wf_asin.o) (matherr)
/usr/lib/gcc/arm-none-eabi/4.9.3/../../../arm-none-eabi/lib/armv7e-m/fpu/libm.a(lib_a-s_nan.o)
                              /usr/lib/gcc/arm-none-eabi/4.9.3/../../../arm-none-eabi/lib/armv7e-m/fpu/libm.a(lib_a-wf_asin.o) (nan)
/usr/lib/gcc/arm-none-eabi/4.9.3/../../../arm-none-eabi/lib/armv7e-m/fpu/libm.a(lib_a-sf_atan.o)
                              /usr/lib/gcc/arm-none-eabi/4.9.3/../../../arm-none-eabi/lib/armv7e-m/fpu/libm.a(lib_a-ef_atan2.o) (atanf)
/usr/lib/gcc/arm-none-eabi/4.9.3/../../../arm-none-eabi/lib/armv7e-m/fpu/libm.a(lib_a-sf_fabs.o)
                              /usr/lib/gcc/arm-none-eabi/4.9.3/../../../arm-none-eabi/lib/armv7e-m/fpu/libm.a(lib_a-wf_asin.o) (fabsf)
/usr/lib/gcc/arm-none-eabi/4.9.3/../../../arm-none-eabi/lib/armv7e-m/fpu/libm.a(lib_a-sf_floor.o)
                              /usr/lib/gcc/arm-none-eabi/4.9.3/../../../arm-none-eabi/lib/armv7e-m/fpu/libm.a(lib_a-kf_rem_pio2.o) (floorf)
/usr/lib/gcc/arm-none-eabi/4.9.3/../../../arm-none-eabi/lib/armv7e-m/fpu/libm.a(lib_a-sf_scalbn.o)
                              /usr/lib/gcc/arm-none-eabi/4.9.3/../../../arm-none-eabi/lib/armv7e-m/fpu/libm.a(lib_a-kf_rem_pio2.o) (scalbnf)
/usr/lib/gcc/arm-none-eabi/4.9.3/../../../arm-none-eabi/lib/armv7e-m/fpu/libm.a(lib_a-sf_copysign.o)
                              /usr/lib/gcc/arm-none-eabi/4.9.3/../../../arm-none-eabi/lib/armv7e-m/fpu/libm.a(lib_a-sf_scalbn.o) (copysignf)
/usr/lib/gcc/arm-none-eabi/4.9.3/armv7e-m/fpu/libgcc.a(_arm_addsubdf3.o)
                              /tmp/cc5Oa950.ltrans11.ltrans.o (__aeabi_dsub)
/usr/lib/gcc/arm-none-eabi/4.9.3/armv7e-m/fpu/libgcc.a(_arm_muldivdf3.o)
                              /tmp/cc5Oa950.ltrans11.ltrans.o (__aeabi_dmul)
/usr/lib/gcc/arm-none-eabi/4.9.3/armv7e-m/fpu/libgcc.a(_arm_fixdfsi.o)
                              /tmp/cc5Oa950.ltrans11.ltrans.o (__aeabi_d2iz)
/usr/lib/gcc/arm-none-eabi/4.9.3/armv7e-m/fpu/libgcc.a(_arm_truncdfsf2.o)
                              /tmp/cc5Oa950.ltrans11.ltrans.o (__aeabi_d2f)
/usr/lib/gcc/arm-none-eabi/4.9.3/../../../arm-none-eabi/lib/armv7e-m/fpu/libg.a(lib_a-errno.o)
                              /usr/lib/gcc/arm-none-eabi/4.9.3/../../../arm-none-eabi/lib/armv7e-m/fpu/libm.a(lib_a-wf_asin.o) (__errno)
/usr/lib/gcc/arm-none-eabi/4.9.3/../../../arm-none-eabi/lib/armv7e-m/fpu/libg.a(lib_a-impure.o)
                              /usr/lib/gcc/arm-none-eabi/4.9.3/../../../arm-none-eabi/lib/armv7e-m/fpu/libg.a(lib_a-errno.o) (_impure_ptr)
/usr/lib/gcc/arm-none-eabi/4.9.3/../../../arm-none-eabi/lib/armv7e-m/fpu/libg.a(lib_a-memcpy.o)
                              /tmp/cc5Oa950.ltrans1.ltrans.o (memcpy)
/usr/lib/gcc/arm-none-eabi/4.9.3/../../../arm-none-eabi/lib/armv7e-m/fpu/libg.a(lib_a-memset.o)
                              /tmp/cc5Oa950.ltrans0.ltrans.o (memset)
/usr/lib/gcc/arm-none-eabi/4.9.3/../../../arm-none-eabi/lib/armv7e-m/fpu/libg.a(lib_a-strcmp.o)
                              /tmp/cc5Oa950.ltrans2.ltrans.o (strcmp)
/usr/lib/gcc/arm-none-eabi/4.9.3/../../../arm-none-eabi/lib/armv7e-m/fpu/libg.a(lib_a-strlen.o)
                              /tmp/cc5Oa950.ltrans13.ltrans.o (strlen)
/usr/lib/gcc/arm-none-eabi/4.9.3/../../../arm-none-eabi/lib/armv7e-m/fpu/libg.a(lib_a-strpbrk.o)
                              /tmp/cc5Oa950.ltrans9.ltrans.o (strpbrk)
/usr/lib/gcc/arm-none-eabi/4.9.3/../../../arm-none-eabi/lib/armv7e-m/fpu/libg.a(lib_a-strspn.o)
                              /tmp/cc5Oa950.ltrans9.ltrans.o (strspn)

Discarded input sections

 .data          0x0000000000000000        0x0 build/obj/crt0_v7m.o
 .bss           0x0000000000000000        0x0 build/obj/crt0_v7m.o
 .data          0x0000000000000000        0x0 build/obj/chcoreasm_v7m.o
 .bss           0x0000000000000000        0x0 build/obj/chcoreasm_v7m.o
 .text          0x0000000000000000        0x0 build/obj/crt1.o (symbol from plugin)
 .text          0x0000000000000000        0x0 /tmp/cc5Oa950.ltrans0.ltrans.o
 .data          0x0000000000000000        0x0 /tmp/cc5Oa950.ltrans0.ltrans.o
 .bss           0x0000000000000000        0x0 /tmp/cc5Oa950.ltrans0.ltrans.o
 .text          0x0000000000000000        0x0 /tmp/cc5Oa950.ltrans1.ltrans.o
 .data          0x0000000000000000        0x0 /tmp/cc5Oa950.ltrans1.ltrans.o
 .bss           0x0000000000000000        0x0 /tmp/cc5Oa950.ltrans1.ltrans.o
 .bss.excitation
                0x0000000000000000        0x8 /tmp/cc5Oa950.ltrans1.ltrans.o
 .text          0x0000000000000000        0x0 /tmp/cc5Oa950.ltrans2.ltrans.o
 .data          0x0000000000000000        0x0 /tmp/cc5Oa950.ltrans2.ltrans.o
 .bss           0x0000000000000000        0x0 /tmp/cc5Oa950.ltrans2.ltrans.o
 .text          0x0000000000000000        0x0 /tmp/cc5Oa950.ltrans3.ltrans.o
 .data          0x0000000000000000        0x0 /tmp/cc5Oa950.ltrans3.ltrans.o
 .bss           0x0000000000000000        0x0 /tmp/cc5Oa950.ltrans3.ltrans.o
 .text          0x0000000000000000        0x0 /tmp/cc5Oa950.ltrans4.ltrans.o
 .data          0x0000000000000000        0x0 /tmp/cc5Oa950.ltrans4.ltrans.o
 .bss           0x0000000000000000        0x0 /tmp/cc5Oa950.ltrans4.ltrans.o
 .text          0x0000000000000000        0x0 /tmp/cc5Oa950.ltrans5.ltrans.o
 .data          0x0000000000000000        0x0 /tmp/cc5Oa950.ltrans5.ltrans.o
 .bss           0x0000000000000000        0x0 /tmp/cc5Oa950.ltrans5.ltrans.o
 .text          0x0000000000000000        0x0 /tmp/cc5Oa950.ltrans6.ltrans.o
 .data          0x0000000000000000        0x0 /tmp/cc5Oa950.ltrans6.ltrans.o
 .bss           0x0000000000000000        0x0 /tmp/cc5Oa950.ltrans6.ltrans.o
 .text          0x0000000000000000        0x0 /tmp/cc5Oa950.ltrans7.ltrans.o
 .data          0x0000000000000000        0x0 /tmp/cc5Oa950.ltrans7.ltrans.o
 .bss           0x0000000000000000        0x0 /tmp/cc5Oa950.ltrans7.ltrans.o
 .text          0x0000000000000000        0x0 /tmp/cc5Oa950.ltrans8.ltrans.o
 .data          0x0000000000000000        0x0 /tmp/cc5Oa950.ltrans8.ltrans.o
 .bss           0x0000000000000000        0x0 /tmp/cc5Oa950.ltrans8.ltrans.o
 .text          0x0000000000000000        0x0 /tmp/cc5Oa950.ltrans9.ltrans.o
 .data          0x0000000000000000        0x0 /tmp/cc5Oa950.ltrans9.ltrans.o
 .bss           0x0000000000000000        0x0 /tmp/cc5Oa950.ltrans9.ltrans.o
 .text          0x0000000000000000        0x0 /tmp/cc5Oa950.ltrans10.ltrans.o
 .data          0x0000000000000000        0x0 /tmp/cc5Oa950.ltrans10.ltrans.o
 .bss           0x0000000000000000        0x0 /tmp/cc5Oa950.ltrans10.ltrans.o
 .rodata.chp.lto_priv.128
                0x0000000000000000        0x4 /tmp/cc5Oa950.ltrans10.ltrans.o
 .text          0x0000000000000000        0x0 /tmp/cc5Oa950.ltrans11.ltrans.o
 .data          0x0000000000000000        0x0 /tmp/cc5Oa950.ltrans11.ltrans.o
 .bss           0x0000000000000000        0x0 /tmp/cc5Oa950.ltrans11.ltrans.o
 .text          0x0000000000000000        0x0 /tmp/cc5Oa950.ltrans12.ltrans.o
 .data          0x0000000000000000        0x0 /tmp/cc5Oa950.ltrans12.ltrans.o
 .bss           0x0000000000000000        0x0 /tmp/cc5Oa950.ltrans12.ltrans.o
 .text._isatty_r
                0x0000000000000000        0x4 /tmp/cc5Oa950.ltrans12.ltrans.o
 .text._fstat_r
                0x0000000000000000       0x18 /tmp/cc5Oa950.ltrans12.ltrans.o
 .text._sbrk_r  0x0000000000000000       0x30 /tmp/cc5Oa950.ltrans12.ltrans.o
 .text._close_r
                0x0000000000000000        0x4 /tmp/cc5Oa950.ltrans12.ltrans.o
 .text._write_r
                0x0000000000000000        0x4 /tmp/cc5Oa950.ltrans12.ltrans.o
 .text._lseek_r
                0x0000000000000000        0x4 /tmp/cc5Oa950.ltrans12.ltrans.o
 .text._read_r  0x0000000000000000        0xc /tmp/cc5Oa950.ltrans12.ltrans.o
 .rodata.__func__.7663
                0x0000000000000000        0x8 /tmp/cc5Oa950.ltrans12.ltrans.o
 .text          0x0000000000000000        0x0 /tmp/cc5Oa950.ltrans13.ltrans.o
 .data          0x0000000000000000        0x0 /tmp/cc5Oa950.ltrans13.ltrans.o
 .bss           0x0000000000000000        0x0 /tmp/cc5Oa950.ltrans13.ltrans.o
 .text          0x0000000000000000        0x0 /tmp/cc5Oa950.ltrans14.ltrans.o
 .data          0x0000000000000000        0x0 /tmp/cc5Oa950.ltrans14.ltrans.o
 .bss           0x0000000000000000        0x0 /tmp/cc5Oa950.ltrans14.ltrans.o
 .text          0x0000000000000000        0x0 /tmp/cc5Oa950.ltrans15.ltrans.o
 .data          0x0000000000000000        0x0 /tmp/cc5Oa950.ltrans15.ltrans.o
 .bss           0x0000000000000000        0x0 /tmp/cc5Oa950.ltrans15.ltrans.o
 .text          0x0000000000000000        0x0 /tmp/cc5Oa950.ltrans16.ltrans.o
 .data          0x0000000000000000        0x0 /tmp/cc5Oa950.ltrans16.ltrans.o
 .bss           0x0000000000000000        0x0 /tmp/cc5Oa950.ltrans16.ltrans.o
 .text          0x0000000000000000        0x0 build/obj/vectors.o (symbol from plugin)
 .text          0x0000000000000000        0x0 build/obj/chsys.o (symbol from plugin)
 .text          0x0000000000000000        0x0 build/obj/chdebug.o (symbol from plugin)
 .text          0x0000000000000000        0x0 build/obj/chvt.o (symbol from plugin)
 .text          0x0000000000000000        0x0 build/obj/chschd.o (symbol from plugin)
 .text          0x0000000000000000        0x0 build/obj/chthreads.o (symbol from plugin)
 .text          0x0000000000000000        0x0 build/obj/chtm.o (symbol from plugin)
 .text          0x0000000000000000        0x0 build/obj/chstats.o (symbol from plugin)
 .text          0x0000000000000000        0x0 build/obj/chdynamic.o (symbol from plugin)
 .text          0x0000000000000000        0x0 build/obj/chregistry.o (symbol from plugin)
 .text          0x0000000000000000        0x0 build/obj/chsem.o (symbol from plugin)
 .text          0x0000000000000000        0x0 build/obj/chmtx.o (symbol from plugin)
 .text          0x0000000000000000        0x0 build/obj/chcond.o (symbol from plugin)
 .text          0x0000000000000000        0x0 build/obj/chevents.o (symbol from plugin)
 .text          0x0000000000000000        0x0 build/obj/chmsg.o (symbol from plugin)
 .text          0x0000000000000000        0x0 build/obj/chmboxes.o (symbol from plugin)
 .text          0x0000000000000000        0x0 build/obj/chqueues.o (symbol from plugin)
 .text          0x0000000000000000        0x0 build/obj/chmemcore.o (symbol from plugin)
 .text          0x0000000000000000        0x0 build/obj/chheap.o (symbol from plugin)
 .text          0x0000000000000000        0x0 build/obj/chmempools.o (symbol from plugin)
 .text          0x0000000000000000        0x0 build/obj/chcore.o (symbol from plugin)
 .text          0x0000000000000000        0x0 build/obj/chcore_v7m.o (symbol from plugin)
 .text          0x0000000000000000        0x0 build/obj/osal.o (symbol from plugin)
 .text          0x0000000000000000        0x0 build/obj/hal.o (symbol from plugin)
 .text          0x0000000000000000        0x0 build/obj/st.o (symbol from plugin)
 .text          0x0000000000000000        0x0 build/obj/hal_buffers.o (symbol from plugin)
 .text          0x0000000000000000        0x0 build/obj/hal_queues.o (symbol from plugin)
 .text          0x0000000000000000        0x0 build/obj/hal_mmcsd.o (symbol from plugin)
 .text          0x0000000000000000        0x0 build/obj/can.o (symbol from plugin)
 .text          0x0000000000000000        0x0 build/obj/ext.o (symbol from plugin)
 .text          0x0000000000000000        0x0 build/obj/pal.o (symbol from plugin)
 .text          0x0000000000000000        0x0 build/obj/pwm.o (symbol from plugin)
 .text          0x0000000000000000        0x0 build/obj/sdc.o (symbol from plugin)
 .text          0x0000000000000000        0x0 build/obj/serial_usb.o (symbol from plugin)
 .text          0x0000000000000000        0x0 build/obj/spi.o (symbol from plugin)
 .text          0x0000000000000000        0x0 build/obj/uart.o (symbol from plugin)
 .text          0x0000000000000000        0x0 build/obj/usb.o (symbol from plugin)
 .text          0x0000000000000000        0x0 build/obj/nvic.o (symbol from plugin)
 .text          0x0000000000000000        0x0 build/obj/hal_lld.o (symbol from plugin)
 .text          0x0000000000000000        0x0 build/obj/stm32_dma.o (symbol from plugin)
 .text          0x0000000000000000        0x0 build/obj/st_lld.o (symbol from plugin)
 .text          0x0000000000000000        0x0 build/obj/can_lld.o (symbol from plugin)
 .text          0x0000000000000000        0x0 build/obj/ext_lld.o (symbol from plugin)
 .text          0x0000000000000000        0x0 build/obj/ext_lld_isr.o (symbol from plugin)
 .text          0x0000000000000000        0x0 build/obj/pal_lld.o (symbol from plugin)
 .text          0x0000000000000000        0x0 build/obj/usb_lld.o (symbol from plugin)
 .text          0x0000000000000000        0x0 build/obj/sdc_lld.o (symbol from plugin)
 .text          0x0000000000000000        0x0 build/obj/spi_lld.o (symbol from plugin)
 .text          0x0000000000000000        0x0 build/obj/pwm_lld.o (symbol from plugin)
 .text          0x0000000000000000        0x0 build/obj/uart_lld.o (symbol from plugin)
 .text          0x0000000000000000        0x0 build/obj/board.o (symbol from plugin)
 .text          0x0000000000000000        0x0 build/obj/arm_pid_init_f32.o (symbol from plugin)
 .text          0x0000000000000000        0x0 build/obj/fatfs_diskio.o (symbol from plugin)
 .text          0x0000000000000000        0x0 build/obj/fatfs_syscall.o (symbol from plugin)
 .text          0x0000000000000000        0x0 build/obj/ff.o (symbol from plugin)
 .text          0x0000000000000000        0x0 build/obj/unicode.o (symbol from plugin)
 .text          0x0000000000000000        0x0 build/obj/shell.o (symbol from plugin)
 .text          0x0000000000000000        0x0 build/obj/evtimer.o (symbol from plugin)
 .text          0x0000000000000000        0x0 build/obj/syscalls.o (symbol from plugin)
 .text          0x0000000000000000        0x0 build/obj/memstreams.o (symbol from plugin)
 .text          0x0000000000000000        0x0 build/obj/chprintf.o (symbol from plugin)
 .text          0x0000000000000000        0x0 build/obj/main.o (symbol from plugin)
 .text          0x0000000000000000        0x0 build/obj/shellcfg.o (symbol from plugin)
 .text          0x0000000000000000        0x0 build/obj/flash.o (symbol from plugin)
 .text          0x0000000000000000        0x0 build/obj/tft_display.o (symbol from plugin)
 .text          0x0000000000000000        0x0 build/obj/mpu6500.o (symbol from plugin)
 .text          0x0000000000000000        0x0 build/obj/attitude.o (symbol from plugin)
 .text          0x0000000000000000        0x0 build/obj/ist8310.o (symbol from plugin)
 .text          0x0000000000000000        0x0 build/obj/adis16265.o (symbol from plugin)
 .text          0x0000000000000000        0x0 build/obj/math_misc.o (symbol from plugin)
 .text          0x0000000000000000        0x0 build/obj/canBusProcess.o (symbol from plugin)
 .text          0x0000000000000000        0x0 build/obj/dbus.o (symbol from plugin)
 .text          0x0000000000000000        0x0 build/obj/gimbal.o (symbol from plugin)
 .text          0x0000000000000000        0x0 build/obj/params.o (symbol from plugin)
 .text          0x0000000000000000        0x0 build/obj/usbcfg.o (symbol from plugin)
 .text          0x0000000000000000        0x0 build/obj/calibrate_sensor.o (symbol from plugin)
 .text          0x0000000000000000        0x0 build/obj/gimbal_sys_iden.o (symbol from plugin)
 .text          0x0000000000000000        0x0 build/obj/shoot_pwm.o (symbol from plugin)
 .text          0x0000000000000000        0x0 build/obj/exti.o (symbol from plugin)
 .text          0x0000000000000000        0x0 build/obj/pwm_struct.o (symbol from plugin)
 .text          0x0000000000000000        0x0 build/obj/imu_temp.o (symbol from plugin)
 .text          0x0000000000000000        0x0 build/obj/sdlog.o (symbol from plugin)
 .text          0x0000000000000000        0x0 /usr/lib/gcc/arm-none-eabi/4.9.3/../../../arm-none-eabi/lib/armv7e-m/fpu/libm.a(lib_a-sf_fpclassify.o)
 .data          0x0000000000000000        0x0 /usr/lib/gcc/arm-none-eabi/4.9.3/../../../arm-none-eabi/lib/armv7e-m/fpu/libm.a(lib_a-sf_fpclassify.o)
 .bss           0x0000000000000000        0x0 /usr/lib/gcc/arm-none-eabi/4.9.3/../../../arm-none-eabi/lib/armv7e-m/fpu/libm.a(lib_a-sf_fpclassify.o)
 .text          0x0000000000000000        0x0 /usr/lib/gcc/arm-none-eabi/4.9.3/../../../arm-none-eabi/lib/armv7e-m/fpu/libm.a(lib_a-sf_cos.o)
 .data          0x0000000000000000        0x0 /usr/lib/gcc/arm-none-eabi/4.9.3/../../../arm-none-eabi/lib/armv7e-m/fpu/libm.a(lib_a-sf_cos.o)
 .bss           0x0000000000000000        0x0 /usr/lib/gcc/arm-none-eabi/4.9.3/../../../arm-none-eabi/lib/armv7e-m/fpu/libm.a(lib_a-sf_cos.o)
 .text          0x0000000000000000        0x0 /usr/lib/gcc/arm-none-eabi/4.9.3/../../../arm-none-eabi/lib/armv7e-m/fpu/libm.a(lib_a-sf_sin.o)
 .data          0x0000000000000000        0x0 /usr/lib/gcc/arm-none-eabi/4.9.3/../../../arm-none-eabi/lib/armv7e-m/fpu/libm.a(lib_a-sf_sin.o)
 .bss           0x0000000000000000        0x0 /usr/lib/gcc/arm-none-eabi/4.9.3/../../../arm-none-eabi/lib/armv7e-m/fpu/libm.a(lib_a-sf_sin.o)
 .text          0x0000000000000000        0x0 /usr/lib/gcc/arm-none-eabi/4.9.3/../../../arm-none-eabi/lib/armv7e-m/fpu/libm.a(lib_a-sf_tan.o)
 .data          0x0000000000000000        0x0 /usr/lib/gcc/arm-none-eabi/4.9.3/../../../arm-none-eabi/lib/armv7e-m/fpu/libm.a(lib_a-sf_tan.o)
 .bss           0x0000000000000000        0x0 /usr/lib/gcc/arm-none-eabi/4.9.3/../../../arm-none-eabi/lib/armv7e-m/fpu/libm.a(lib_a-sf_tan.o)
 .text          0x0000000000000000        0x0 /usr/lib/gcc/arm-none-eabi/4.9.3/../../../arm-none-eabi/lib/armv7e-m/fpu/libm.a(lib_a-wf_asin.o)
 .data          0x0000000000000000        0x0 /usr/lib/gcc/arm-none-eabi/4.9.3/../../../arm-none-eabi/lib/armv7e-m/fpu/libm.a(lib_a-wf_asin.o)
 .bss           0x0000000000000000        0x0 /usr/lib/gcc/arm-none-eabi/4.9.3/../../../arm-none-eabi/lib/armv7e-m/fpu/libm.a(lib_a-wf_asin.o)
 .text          0x0000000000000000        0x0 /usr/lib/gcc/arm-none-eabi/4.9.3/../../../arm-none-eabi/lib/armv7e-m/fpu/libm.a(lib_a-wf_atan2.o)
 .data          0x0000000000000000        0x0 /usr/lib/gcc/arm-none-eabi/4.9.3/../../../arm-none-eabi/lib/armv7e-m/fpu/libm.a(lib_a-wf_atan2.o)
 .bss           0x0000000000000000        0x0 /usr/lib/gcc/arm-none-eabi/4.9.3/../../../arm-none-eabi/lib/armv7e-m/fpu/libm.a(lib_a-wf_atan2.o)
 .text          0x0000000000000000        0x0 /usr/lib/gcc/arm-none-eabi/4.9.3/../../../arm-none-eabi/lib/armv7e-m/fpu/libm.a(lib_a-wf_sqrt.o)
 .data          0x0000000000000000        0x0 /usr/lib/gcc/arm-none-eabi/4.9.3/../../../arm-none-eabi/lib/armv7e-m/fpu/libm.a(lib_a-wf_sqrt.o)
 .bss           0x0000000000000000        0x0 /usr/lib/gcc/arm-none-eabi/4.9.3/../../../arm-none-eabi/lib/armv7e-m/fpu/libm.a(lib_a-wf_sqrt.o)
 .text          0x0000000000000000        0x0 /usr/lib/gcc/arm-none-eabi/4.9.3/../../../arm-none-eabi/lib/armv7e-m/fpu/libm.a(lib_a-ef_asin.o)
 .data          0x0000000000000000        0x0 /usr/lib/gcc/arm-none-eabi/4.9.3/../../../arm-none-eabi/lib/armv7e-m/fpu/libm.a(lib_a-ef_asin.o)
 .bss           0x0000000000000000        0x0 /usr/lib/gcc/arm-none-eabi/4.9.3/../../../arm-none-eabi/lib/armv7e-m/fpu/libm.a(lib_a-ef_asin.o)
 .text          0x0000000000000000        0x0 /usr/lib/gcc/arm-none-eabi/4.9.3/../../../arm-none-eabi/lib/armv7e-m/fpu/libm.a(lib_a-ef_atan2.o)
 .data          0x0000000000000000        0x0 /usr/lib/gcc/arm-none-eabi/4.9.3/../../../arm-none-eabi/lib/armv7e-m/fpu/libm.a(lib_a-ef_atan2.o)
 .bss           0x0000000000000000        0x0 /usr/lib/gcc/arm-none-eabi/4.9.3/../../../arm-none-eabi/lib/armv7e-m/fpu/libm.a(lib_a-ef_atan2.o)
 .text          0x0000000000000000        0x0 /usr/lib/gcc/arm-none-eabi/4.9.3/../../../arm-none-eabi/lib/armv7e-m/fpu/libm.a(lib_a-ef_rem_pio2.o)
 .data          0x0000000000000000        0x0 /usr/lib/gcc/arm-none-eabi/4.9.3/../../../arm-none-eabi/lib/armv7e-m/fpu/libm.a(lib_a-ef_rem_pio2.o)
 .bss           0x0000000000000000        0x0 /usr/lib/gcc/arm-none-eabi/4.9.3/../../../arm-none-eabi/lib/armv7e-m/fpu/libm.a(lib_a-ef_rem_pio2.o)
 .text          0x0000000000000000        0x0 /usr/lib/gcc/arm-none-eabi/4.9.3/../../../arm-none-eabi/lib/armv7e-m/fpu/libm.a(lib_a-ef_sqrt.o)
 .data          0x0000000000000000        0x0 /usr/lib/gcc/arm-none-eabi/4.9.3/../../../arm-none-eabi/lib/armv7e-m/fpu/libm.a(lib_a-ef_sqrt.o)
 .bss           0x0000000000000000        0x0 /usr/lib/gcc/arm-none-eabi/4.9.3/../../../arm-none-eabi/lib/armv7e-m/fpu/libm.a(lib_a-ef_sqrt.o)
 .text          0x0000000000000000        0x0 /usr/lib/gcc/arm-none-eabi/4.9.3/../../../arm-none-eabi/lib/armv7e-m/fpu/libm.a(lib_a-kf_cos.o)
 .data          0x0000000000000000        0x0 /usr/lib/gcc/arm-none-eabi/4.9.3/../../../arm-none-eabi/lib/armv7e-m/fpu/libm.a(lib_a-kf_cos.o)
 .bss           0x0000000000000000        0x0 /usr/lib/gcc/arm-none-eabi/4.9.3/../../../arm-none-eabi/lib/armv7e-m/fpu/libm.a(lib_a-kf_cos.o)
 .text          0x0000000000000000        0x0 /usr/lib/gcc/arm-none-eabi/4.9.3/../../../arm-none-eabi/lib/armv7e-m/fpu/libm.a(lib_a-kf_rem_pio2.o)
 .data          0x0000000000000000        0x0 /usr/lib/gcc/arm-none-eabi/4.9.3/../../../arm-none-eabi/lib/armv7e-m/fpu/libm.a(lib_a-kf_rem_pio2.o)
 .bss           0x0000000000000000        0x0 /usr/lib/gcc/arm-none-eabi/4.9.3/../../../arm-none-eabi/lib/armv7e-m/fpu/libm.a(lib_a-kf_rem_pio2.o)
 .text          0x0000000000000000        0x0 /usr/lib/gcc/arm-none-eabi/4.9.3/../../../arm-none-eabi/lib/armv7e-m/fpu/libm.a(lib_a-kf_sin.o)
 .data          0x0000000000000000        0x0 /usr/lib/gcc/arm-none-eabi/4.9.3/../../../arm-none-eabi/lib/armv7e-m/fpu/libm.a(lib_a-kf_sin.o)
 .bss           0x0000000000000000        0x0 /usr/lib/gcc/arm-none-eabi/4.9.3/../../../arm-none-eabi/lib/armv7e-m/fpu/libm.a(lib_a-kf_sin.o)
 .text          0x0000000000000000        0x0 /usr/lib/gcc/arm-none-eabi/4.9.3/../../../arm-none-eabi/lib/armv7e-m/fpu/libm.a(lib_a-kf_tan.o)
 .data          0x0000000000000000        0x0 /usr/lib/gcc/arm-none-eabi/4.9.3/../../../arm-none-eabi/lib/armv7e-m/fpu/libm.a(lib_a-kf_tan.o)
 .bss           0x0000000000000000        0x0 /usr/lib/gcc/arm-none-eabi/4.9.3/../../../arm-none-eabi/lib/armv7e-m/fpu/libm.a(lib_a-kf_tan.o)
 .text          0x0000000000000000        0x0 /usr/lib/gcc/arm-none-eabi/4.9.3/../../../arm-none-eabi/lib/armv7e-m/fpu/libm.a(lib_a-s_lib_ver.o)
 .data          0x0000000000000000        0x0 /usr/lib/gcc/arm-none-eabi/4.9.3/../../../arm-none-eabi/lib/armv7e-m/fpu/libm.a(lib_a-s_lib_ver.o)
 .bss           0x0000000000000000        0x0 /usr/lib/gcc/arm-none-eabi/4.9.3/../../../arm-none-eabi/lib/armv7e-m/fpu/libm.a(lib_a-s_lib_ver.o)
 .text          0x0000000000000000        0x0 /usr/lib/gcc/arm-none-eabi/4.9.3/../../../arm-none-eabi/lib/armv7e-m/fpu/libm.a(lib_a-s_matherr.o)
 .data          0x0000000000000000        0x0 /usr/lib/gcc/arm-none-eabi/4.9.3/../../../arm-none-eabi/lib/armv7e-m/fpu/libm.a(lib_a-s_matherr.o)
 .bss           0x0000000000000000        0x0 /usr/lib/gcc/arm-none-eabi/4.9.3/../../../arm-none-eabi/lib/armv7e-m/fpu/libm.a(lib_a-s_matherr.o)
 .text          0x0000000000000000        0x0 /usr/lib/gcc/arm-none-eabi/4.9.3/../../../arm-none-eabi/lib/armv7e-m/fpu/libm.a(lib_a-s_nan.o)
 .data          0x0000000000000000        0x0 /usr/lib/gcc/arm-none-eabi/4.9.3/../../../arm-none-eabi/lib/armv7e-m/fpu/libm.a(lib_a-s_nan.o)
 .bss           0x0000000000000000        0x0 /usr/lib/gcc/arm-none-eabi/4.9.3/../../../arm-none-eabi/lib/armv7e-m/fpu/libm.a(lib_a-s_nan.o)
 .text          0x0000000000000000        0x0 /usr/lib/gcc/arm-none-eabi/4.9.3/../../../arm-none-eabi/lib/armv7e-m/fpu/libm.a(lib_a-sf_atan.o)
 .data          0x0000000000000000        0x0 /usr/lib/gcc/arm-none-eabi/4.9.3/../../../arm-none-eabi/lib/armv7e-m/fpu/libm.a(lib_a-sf_atan.o)
 .bss           0x0000000000000000        0x0 /usr/lib/gcc/arm-none-eabi/4.9.3/../../../arm-none-eabi/lib/armv7e-m/fpu/libm.a(lib_a-sf_atan.o)
 .text          0x0000000000000000        0x0 /usr/lib/gcc/arm-none-eabi/4.9.3/../../../arm-none-eabi/lib/armv7e-m/fpu/libm.a(lib_a-sf_fabs.o)
 .data          0x0000000000000000        0x0 /usr/lib/gcc/arm-none-eabi/4.9.3/../../../arm-none-eabi/lib/armv7e-m/fpu/libm.a(lib_a-sf_fabs.o)
 .bss           0x0000000000000000        0x0 /usr/lib/gcc/arm-none-eabi/4.9.3/../../../arm-none-eabi/lib/armv7e-m/fpu/libm.a(lib_a-sf_fabs.o)
 .text          0x0000000000000000        0x0 /usr/lib/gcc/arm-none-eabi/4.9.3/../../../arm-none-eabi/lib/armv7e-m/fpu/libm.a(lib_a-sf_floor.o)
 .data          0x0000000000000000        0x0 /usr/lib/gcc/arm-none-eabi/4.9.3/../../../arm-none-eabi/lib/armv7e-m/fpu/libm.a(lib_a-sf_floor.o)
 .bss           0x0000000000000000        0x0 /usr/lib/gcc/arm-none-eabi/4.9.3/../../../arm-none-eabi/lib/armv7e-m/fpu/libm.a(lib_a-sf_floor.o)
 .text          0x0000000000000000        0x0 /usr/lib/gcc/arm-none-eabi/4.9.3/../../../arm-none-eabi/lib/armv7e-m/fpu/libm.a(lib_a-sf_scalbn.o)
 .data          0x0000000000000000        0x0 /usr/lib/gcc/arm-none-eabi/4.9.3/../../../arm-none-eabi/lib/armv7e-m/fpu/libm.a(lib_a-sf_scalbn.o)
 .bss           0x0000000000000000        0x0 /usr/lib/gcc/arm-none-eabi/4.9.3/../../../arm-none-eabi/lib/armv7e-m/fpu/libm.a(lib_a-sf_scalbn.o)
 .text          0x0000000000000000        0x0 /usr/lib/gcc/arm-none-eabi/4.9.3/../../../arm-none-eabi/lib/armv7e-m/fpu/libm.a(lib_a-sf_copysign.o)
 .data          0x0000000000000000        0x0 /usr/lib/gcc/arm-none-eabi/4.9.3/../../../arm-none-eabi/lib/armv7e-m/fpu/libm.a(lib_a-sf_copysign.o)
 .bss           0x0000000000000000        0x0 /usr/lib/gcc/arm-none-eabi/4.9.3/../../../arm-none-eabi/lib/armv7e-m/fpu/libm.a(lib_a-sf_copysign.o)
 .data          0x0000000000000000        0x0 /usr/lib/gcc/arm-none-eabi/4.9.3/armv7e-m/fpu/libgcc.a(_arm_addsubdf3.o)
 .bss           0x0000000000000000        0x0 /usr/lib/gcc/arm-none-eabi/4.9.3/armv7e-m/fpu/libgcc.a(_arm_addsubdf3.o)
 .data          0x0000000000000000        0x0 /usr/lib/gcc/arm-none-eabi/4.9.3/armv7e-m/fpu/libgcc.a(_arm_muldivdf3.o)
 .bss           0x0000000000000000        0x0 /usr/lib/gcc/arm-none-eabi/4.9.3/armv7e-m/fpu/libgcc.a(_arm_muldivdf3.o)
 .data          0x0000000000000000        0x0 /usr/lib/gcc/arm-none-eabi/4.9.3/armv7e-m/fpu/libgcc.a(_arm_fixdfsi.o)
 .bss           0x0000000000000000        0x0 /usr/lib/gcc/arm-none-eabi/4.9.3/armv7e-m/fpu/libgcc.a(_arm_fixdfsi.o)
 .data          0x0000000000000000        0x0 /usr/lib/gcc/arm-none-eabi/4.9.3/armv7e-m/fpu/libgcc.a(_arm_truncdfsf2.o)
 .bss           0x0000000000000000        0x0 /usr/lib/gcc/arm-none-eabi/4.9.3/armv7e-m/fpu/libgcc.a(_arm_truncdfsf2.o)
 .text          0x0000000000000000        0x0 /usr/lib/gcc/arm-none-eabi/4.9.3/../../../arm-none-eabi/lib/armv7e-m/fpu/libg.a(lib_a-errno.o)
 .data          0x0000000000000000        0x0 /usr/lib/gcc/arm-none-eabi/4.9.3/../../../arm-none-eabi/lib/armv7e-m/fpu/libg.a(lib_a-errno.o)
 .bss           0x0000000000000000        0x0 /usr/lib/gcc/arm-none-eabi/4.9.3/../../../arm-none-eabi/lib/armv7e-m/fpu/libg.a(lib_a-errno.o)
 .text          0x0000000000000000        0x0 /usr/lib/gcc/arm-none-eabi/4.9.3/../../../arm-none-eabi/lib/armv7e-m/fpu/libg.a(lib_a-impure.o)
 .data          0x0000000000000000        0x0 /usr/lib/gcc/arm-none-eabi/4.9.3/../../../arm-none-eabi/lib/armv7e-m/fpu/libg.a(lib_a-impure.o)
 .bss           0x0000000000000000        0x0 /usr/lib/gcc/arm-none-eabi/4.9.3/../../../arm-none-eabi/lib/armv7e-m/fpu/libg.a(lib_a-impure.o)
 .rodata._global_impure_ptr
                0x0000000000000000        0x4 /usr/lib/gcc/arm-none-eabi/4.9.3/../../../arm-none-eabi/lib/armv7e-m/fpu/libg.a(lib_a-impure.o)
 .data          0x0000000000000000        0x0 /usr/lib/gcc/arm-none-eabi/4.9.3/../../../arm-none-eabi/lib/armv7e-m/fpu/libg.a(lib_a-memcpy.o)
 .bss           0x0000000000000000        0x0 /usr/lib/gcc/arm-none-eabi/4.9.3/../../../arm-none-eabi/lib/armv7e-m/fpu/libg.a(lib_a-memcpy.o)
 .text          0x0000000000000000        0x0 /usr/lib/gcc/arm-none-eabi/4.9.3/../../../arm-none-eabi/lib/armv7e-m/fpu/libg.a(lib_a-memset.o)
 .data          0x0000000000000000        0x0 /usr/lib/gcc/arm-none-eabi/4.9.3/../../../arm-none-eabi/lib/armv7e-m/fpu/libg.a(lib_a-memset.o)
 .bss           0x0000000000000000        0x0 /usr/lib/gcc/arm-none-eabi/4.9.3/../../../arm-none-eabi/lib/armv7e-m/fpu/libg.a(lib_a-memset.o)
 .data          0x0000000000000000        0x0 /usr/lib/gcc/arm-none-eabi/4.9.3/../../../arm-none-eabi/lib/armv7e-m/fpu/libg.a(lib_a-strcmp.o)
 .bss           0x0000000000000000        0x0 /usr/lib/gcc/arm-none-eabi/4.9.3/../../../arm-none-eabi/lib/armv7e-m/fpu/libg.a(lib_a-strcmp.o)
 .eh_frame      0x0000000000000000       0x70 /usr/lib/gcc/arm-none-eabi/4.9.3/../../../arm-none-eabi/lib/armv7e-m/fpu/libg.a(lib_a-strcmp.o)
 .text          0x0000000000000000        0x0 /usr/lib/gcc/arm-none-eabi/4.9.3/../../../arm-none-eabi/lib/armv7e-m/fpu/libg.a(lib_a-strlen.o)
 .data          0x0000000000000000        0x0 /usr/lib/gcc/arm-none-eabi/4.9.3/../../../arm-none-eabi/lib/armv7e-m/fpu/libg.a(lib_a-strlen.o)
 .bss           0x0000000000000000        0x0 /usr/lib/gcc/arm-none-eabi/4.9.3/../../../arm-none-eabi/lib/armv7e-m/fpu/libg.a(lib_a-strlen.o)
 .text          0x0000000000000000        0x0 /usr/lib/gcc/arm-none-eabi/4.9.3/../../../arm-none-eabi/lib/armv7e-m/fpu/libg.a(lib_a-strpbrk.o)
 .data          0x0000000000000000        0x0 /usr/lib/gcc/arm-none-eabi/4.9.3/../../../arm-none-eabi/lib/armv7e-m/fpu/libg.a(lib_a-strpbrk.o)
 .bss           0x0000000000000000        0x0 /usr/lib/gcc/arm-none-eabi/4.9.3/../../../arm-none-eabi/lib/armv7e-m/fpu/libg.a(lib_a-strpbrk.o)
 .text          0x0000000000000000        0x0 /usr/lib/gcc/arm-none-eabi/4.9.3/../../../arm-none-eabi/lib/armv7e-m/fpu/libg.a(lib_a-strspn.o)
 .data          0x0000000000000000        0x0 /usr/lib/gcc/arm-none-eabi/4.9.3/../../../arm-none-eabi/lib/armv7e-m/fpu/libg.a(lib_a-strspn.o)
 .bss           0x0000000000000000        0x0 /usr/lib/gcc/arm-none-eabi/4.9.3/../../../arm-none-eabi/lib/armv7e-m/fpu/libg.a(lib_a-strspn.o)

Memory Configuration

Name             Origin             Length             Attributes
flash            0x0000000008000000 0x0000000000200000
ram0             0x0000000020000000 0x0000000000030000
ram1             0x0000000020000000 0x000000000001c000
ram2             0x000000002001c000 0x0000000000004000
ram3             0x0000000020020000 0x0000000000010000
ram4             0x0000000010000000 0x0000000000010000
ram5             0x0000000040024000 0x0000000000001000
ram6             0x0000000000000000 0x0000000000000000
ram7             0x0000000000000000 0x0000000000000000
*default*        0x0000000000000000 0xffffffffffffffff

Linker script and memory map

LOAD build/obj/crt0_v7m.o
LOAD build/obj/chcoreasm_v7m.o
LOAD build/obj/crt1.o
LOAD /tmp/cc5Oa950.ltrans0.ltrans.o
LOAD /tmp/cc5Oa950.ltrans1.ltrans.o
LOAD /tmp/cc5Oa950.ltrans2.ltrans.o
LOAD /tmp/cc5Oa950.ltrans3.ltrans.o
LOAD /tmp/cc5Oa950.ltrans4.ltrans.o
LOAD /tmp/cc5Oa950.ltrans5.ltrans.o
LOAD /tmp/cc5Oa950.ltrans6.ltrans.o
LOAD /tmp/cc5Oa950.ltrans7.ltrans.o
LOAD /tmp/cc5Oa950.ltrans8.ltrans.o
LOAD /tmp/cc5Oa950.ltrans9.ltrans.o
LOAD /tmp/cc5Oa950.ltrans10.ltrans.o
LOAD /tmp/cc5Oa950.ltrans11.ltrans.o
LOAD /tmp/cc5Oa950.ltrans12.ltrans.o
LOAD /tmp/cc5Oa950.ltrans13.ltrans.o
LOAD /tmp/cc5Oa950.ltrans14.ltrans.o
LOAD /tmp/cc5Oa950.ltrans15.ltrans.o
LOAD /tmp/cc5Oa950.ltrans16.ltrans.o
LOAD build/obj/vectors.o
LOAD build/obj/chsys.o
LOAD build/obj/chdebug.o
LOAD build/obj/chvt.o
LOAD build/obj/chschd.o
LOAD build/obj/chthreads.o
LOAD build/obj/chtm.o
LOAD build/obj/chstats.o
LOAD build/obj/chdynamic.o
LOAD build/obj/chregistry.o
LOAD build/obj/chsem.o
LOAD build/obj/chmtx.o
LOAD build/obj/chcond.o
LOAD build/obj/chevents.o
LOAD build/obj/chmsg.o
LOAD build/obj/chmboxes.o
LOAD build/obj/chqueues.o
LOAD build/obj/chmemcore.o
LOAD build/obj/chheap.o
LOAD build/obj/chmempools.o
LOAD build/obj/chcore.o
LOAD build/obj/chcore_v7m.o
LOAD build/obj/osal.o
LOAD build/obj/hal.o
LOAD build/obj/st.o
LOAD build/obj/hal_buffers.o
LOAD build/obj/hal_queues.o
LOAD build/obj/hal_mmcsd.o
LOAD build/obj/can.o
LOAD build/obj/ext.o
LOAD build/obj/pal.o
LOAD build/obj/pwm.o
LOAD build/obj/sdc.o
LOAD build/obj/serial_usb.o
LOAD build/obj/spi.o
LOAD build/obj/uart.o
LOAD build/obj/usb.o
LOAD build/obj/nvic.o
LOAD build/obj/hal_lld.o
LOAD build/obj/stm32_dma.o
LOAD build/obj/st_lld.o
LOAD build/obj/can_lld.o
LOAD build/obj/ext_lld.o
LOAD build/obj/ext_lld_isr.o
LOAD build/obj/pal_lld.o
LOAD build/obj/usb_lld.o
LOAD build/obj/sdc_lld.o
LOAD build/obj/spi_lld.o
LOAD build/obj/pwm_lld.o
LOAD build/obj/uart_lld.o
LOAD build/obj/board.o
LOAD build/obj/arm_pid_init_f32.o
LOAD build/obj/fatfs_diskio.o
LOAD build/obj/fatfs_syscall.o
LOAD build/obj/ff.o
LOAD build/obj/unicode.o
LOAD build/obj/shell.o
LOAD build/obj/evtimer.o
LOAD build/obj/syscalls.o
LOAD build/obj/memstreams.o
LOAD build/obj/chprintf.o
LOAD build/obj/main.o
LOAD build/obj/shellcfg.o
LOAD build/obj/flash.o
LOAD build/obj/tft_display.o
LOAD build/obj/mpu6500.o
LOAD build/obj/attitude.o
LOAD build/obj/ist8310.o
LOAD build/obj/adis16265.o
LOAD build/obj/math_misc.o
LOAD build/obj/canBusProcess.o
LOAD build/obj/dbus.o
LOAD build/obj/gimbal.o
LOAD build/obj/params.o
LOAD build/obj/usbcfg.o
LOAD build/obj/calibrate_sensor.o
LOAD build/obj/gimbal_sys_iden.o
LOAD build/obj/shoot_pwm.o
LOAD build/obj/exti.o
LOAD build/obj/pwm_struct.o
LOAD build/obj/imu_temp.o
LOAD build/obj/sdlog.o
                0x0000000020000000                __ram0_start__ = ORIGIN (ram0)
                0x0000000000030000                __ram0_size__ = LENGTH (ram0)
                0x0000000020030000                __ram0_end__ = (__ram0_start__ + __ram0_size__)
                0x0000000020000000                __ram1_start__ = ORIGIN (ram1)
                0x000000000001c000                __ram1_size__ = LENGTH (ram1)
                0x000000002001c000                __ram1_end__ = (__ram1_start__ + __ram1_size__)
                0x000000002001c000                __ram2_start__ = ORIGIN (ram2)
                0x0000000000004000                __ram2_size__ = LENGTH (ram2)
                0x0000000020020000                __ram2_end__ = (__ram2_start__ + __ram2_size__)
                0x0000000020020000                __ram3_start__ = ORIGIN (ram3)
                0x0000000000010000                __ram3_size__ = LENGTH (ram3)
                0x0000000020030000                __ram3_end__ = (__ram3_start__ + __ram3_size__)
                0x0000000010000000                __ram4_start__ = ORIGIN (ram4)
                0x0000000000010000                __ram4_size__ = LENGTH (ram4)
                0x0000000010010000                __ram4_end__ = (__ram4_start__ + __ram4_size__)
                0x0000000040024000                __ram5_start__ = ORIGIN (ram5)
                0x0000000000001000                __ram5_size__ = LENGTH (ram5)
                0x0000000040025000                __ram5_end__ = (__ram5_start__ + __ram5_size__)
                0x0000000000000000                __ram6_start__ = ORIGIN (ram6)
                0x0000000000000000                __ram6_size__ = LENGTH (ram6)
                0x0000000000000000                __ram6_end__ = (__ram6_start__ + __ram6_size__)
                0x0000000000000000                __ram7_start__ = ORIGIN (ram7)
                0x0000000000000000                __ram7_size__ = LENGTH (ram7)
                0x0000000000000000                __ram7_end__ = (__ram7_start__ + __ram7_size__)
                0x0000000000000000                . = 0x0
                0x0000000000000000                _text = .

startup         0x0000000008000000      0x1c0
 *(.vectors)
 .vectors       0x0000000008000000      0x1c0 /tmp/cc5Oa950.ltrans3.ltrans.o
                0x0000000008000000                _vectors

constructors    0x00000000080001c0        0x0
                0x00000000080001c0                __init_array_start = .
 *(SORT(.init_array.*))
 *(.init_array)
                0x00000000080001c0                __init_array_end = .

destructors     0x00000000080001c0        0x0
                0x00000000080001c0                __fini_array_start = .
 *(.fini_array)
 *(SORT(.fini_array.*))
                0x00000000080001c0                __fini_array_end = .

.text           0x00000000080001c0    0x115a4
 *(.text)
 .text          0x00000000080001c0      0x108 build/obj/crt0_v7m.o
                0x00000000080001c0                Reset_Handler
 *fill*         0x00000000080002c8        0x8 
 .text          0x00000000080002d0       0x48 build/obj/chcoreasm_v7m.o
                0x00000000080002d0                _port_switch
                0x00000000080002e8                _port_thread_start
                0x0000000008000300                _port_switch_from_isr
                0x0000000008000314                _port_exit_from_isr
 *fill*         0x0000000008000318        0x8 
 .text          0x0000000008000320      0x370 /usr/lib/gcc/arm-none-eabi/4.9.3/armv7e-m/fpu/libgcc.a(_arm_addsubdf3.o)
                0x0000000008000320                __aeabi_drsub
                0x0000000008000328                __aeabi_dsub
                0x0000000008000328                __subdf3
                0x000000000800032c                __adddf3
                0x000000000800032c                __aeabi_dadd
                0x00000000080005a4                __aeabi_ui2d
                0x00000000080005a4                __floatunsidf
                0x00000000080005c4                __floatsidf
                0x00000000080005c4                __aeabi_i2d
                0x00000000080005e8                __extendsfdf2
                0x00000000080005e8                __aeabi_f2d
                0x0000000008000624                __aeabi_ul2d
                0x0000000008000624                __floatundidf
                0x0000000008000634                __floatdidf
                0x0000000008000634                __aeabi_l2d
 .text          0x0000000008000690      0x424 /usr/lib/gcc/arm-none-eabi/4.9.3/armv7e-m/fpu/libgcc.a(_arm_muldivdf3.o)
                0x0000000008000690                __aeabi_dmul
                0x0000000008000690                __muldf3
                0x00000000080008e4                __aeabi_ddiv
                0x00000000080008e4                __divdf3
 *fill*         0x0000000008000ab4        0xc 
 .text          0x0000000008000ac0       0x50 /usr/lib/gcc/arm-none-eabi/4.9.3/armv7e-m/fpu/libgcc.a(_arm_fixdfsi.o)
                0x0000000008000ac0                __fixdfsi
                0x0000000008000ac0                __aeabi_d2iz
 .text          0x0000000008000b10       0xa0 /usr/lib/gcc/arm-none-eabi/4.9.3/armv7e-m/fpu/libgcc.a(_arm_truncdfsf2.o)
                0x0000000008000b10                __aeabi_d2f
                0x0000000008000b10                __truncdfsf2
 .text          0x0000000008000bb0      0x134 /usr/lib/gcc/arm-none-eabi/4.9.3/../../../arm-none-eabi/lib/armv7e-m/fpu/libg.a(lib_a-memcpy.o)
                0x0000000008000bb0                memcpy
 *fill*         0x0000000008000ce4        0xc 
 .text          0x0000000008000cf0      0x2e0 /usr/lib/gcc/arm-none-eabi/4.9.3/../../../arm-none-eabi/lib/armv7e-m/fpu/libg.a(lib_a-strcmp.o)
                0x0000000008000cf8                strcmp
 *(.text.*)
 .text.startup.main
                0x0000000008000fd0     0x140c /tmp/cc5Oa950.ltrans0.ltrans.o
                0x0000000008000fd0                main
 *fill*         0x00000000080023dc        0x4 
 .text.SVC_Handler
                0x00000000080023e0       0x20 /tmp/cc5Oa950.ltrans1.ltrans.o
                0x00000000080023e0                SVC_Handler
 .text._idle_thread.lto_priv.163
                0x0000000008002400        0x4 /tmp/cc5Oa950.ltrans1.ltrans.o
                0x0000000008002400                _idle_thread.lto_priv.163
 *fill*         0x0000000008002404        0xc 
 .text.stSetAlarm
                0x0000000008002410       0x20 /tmp/cc5Oa950.ltrans1.ltrans.o
                0x0000000008002410                stSetAlarm
 .text._port_irq_epilogue
                0x0000000008002430       0x64 /tmp/cc5Oa950.ltrans1.ltrans.o
                0x0000000008002430                _port_irq_epilogue
 *fill*         0x0000000008002494        0xc 
 .text._stats_increase_irq
                0x00000000080024a0       0x20 /tmp/cc5Oa950.ltrans1.ltrans.o
                0x00000000080024a0                _stats_increase_irq
 .text.chTMChainMeasurementToX
                0x00000000080024c0       0x3c /tmp/cc5Oa950.ltrans1.ltrans.o
                0x00000000080024c0                chTMChainMeasurementToX
 *fill*         0x00000000080024fc        0x4 
 .text.chTMStopMeasurementX
                0x0000000008002500       0x48 /tmp/cc5Oa950.ltrans1.ltrans.o
                0x0000000008002500                chTMStopMeasurementX
 *fill*         0x0000000008002548        0x8 
 .text._stats_stop_measure_crit_isr
                0x0000000008002550        0xc /tmp/cc5Oa950.ltrans1.ltrans.o
                0x0000000008002550                _stats_stop_measure_crit_isr
 *fill*         0x000000000800255c        0x4 
 .text._stats_stop_measure_crit_thd
                0x0000000008002560        0xc /tmp/cc5Oa950.ltrans1.ltrans.o
                0x0000000008002560                _stats_stop_measure_crit_thd
 *fill*         0x000000000800256c        0x4 
 .text.chTMStartMeasurementX
                0x0000000008002570        0xc /tmp/cc5Oa950.ltrans1.ltrans.o
                0x0000000008002570                chTMStartMeasurementX
 *fill*         0x000000000800257c        0x4 
 .text._stats_start_measure_crit_isr
                0x0000000008002580        0xc /tmp/cc5Oa950.ltrans1.ltrans.o
                0x0000000008002580                _stats_start_measure_crit_isr
 *fill*         0x000000000800258c        0x4 
 .text._stats_start_measure_crit_thd
                0x0000000008002590        0xc /tmp/cc5Oa950.ltrans1.ltrans.o
                0x0000000008002590                _stats_start_measure_crit_thd
 *fill*         0x000000000800259c        0x4 
 .text._dbg_trace
                0x00000000080025a0       0x38 /tmp/cc5Oa950.ltrans1.ltrans.o
                0x00000000080025a0                _dbg_trace
 *fill*         0x00000000080025d8        0x8 
 .text.chSchDoRescheduleAhead
                0x00000000080025e0       0x78 /tmp/cc5Oa950.ltrans1.ltrans.o
 *fill*         0x0000000008002658        0x8 
 .text.chSchDoReschedule
                0x0000000008002660        0x4 /tmp/cc5Oa950.ltrans1.ltrans.o
                0x0000000008002660                chSchDoReschedule
 *fill*         0x0000000008002664        0xc 
 .text.chDbgCheckClassS
                0x0000000008002670       0x20 /tmp/cc5Oa950.ltrans1.ltrans.o
                0x0000000008002670                chDbgCheckClassS
 .text.ibqReleaseEmptyBufferS
                0x0000000008002690       0x48 /tmp/cc5Oa950.ltrans1.ltrans.o
 *fill*         0x00000000080026d8        0x8 
 .text.chSchGoSleepS
                0x00000000080026e0       0x64 /tmp/cc5Oa950.ltrans1.ltrans.o
                0x00000000080026e0                chSchGoSleepS
 *fill*         0x0000000008002744        0xc 
 .text.chThdSuspendS
                0x0000000008002750       0x2c /tmp/cc5Oa950.ltrans1.ltrans.o
                0x0000000008002750                chThdSuspendS
 *fill*         0x000000000800277c        0x4 
 .text.chDbgCheckClassI
                0x0000000008002780       0x20 /tmp/cc5Oa950.ltrans1.ltrans.o
                0x0000000008002780                chDbgCheckClassI
 .text.chThdCreateI
                0x00000000080027a0       0xb8 /tmp/cc5Oa950.ltrans1.ltrans.o
                0x00000000080027a0                chThdCreateI
 *fill*         0x0000000008002858        0x8 
 .text.chSchRescheduleS
                0x0000000008002860       0x28 /tmp/cc5Oa950.ltrans1.ltrans.o
                0x0000000008002860                chSchRescheduleS
 *fill*         0x0000000008002888        0x8 
 .text.chSchGoSleepTimeoutS
                0x0000000008002890      0x170 /tmp/cc5Oa950.ltrans1.ltrans.o
                0x0000000008002890                chSchGoSleepTimeoutS
 .text.chThdEnqueueTimeoutS
                0x0000000008002a00       0x28 /tmp/cc5Oa950.ltrans1.ltrans.o
                0x0000000008002a00                chThdEnqueueTimeoutS
 *fill*         0x0000000008002a28        0x8 
 .text.ibqGetFullBufferTimeoutS
                0x0000000008002a30       0x44 /tmp/cc5Oa950.ltrans1.ltrans.o
 *fill*         0x0000000008002a74        0xc 
 .text.chSchReadyI
                0x0000000008002a80       0x50 /tmp/cc5Oa950.ltrans1.ltrans.o
                0x0000000008002a80                chSchReadyI
 .text.chEvtBroadcastFlagsI
                0x0000000008002ad0       0x9c /tmp/cc5Oa950.ltrans1.ltrans.o
                0x0000000008002ad0                chEvtBroadcastFlagsI
 *fill*         0x0000000008002b6c        0x4 
 .text.chThdDequeueAllI
                0x0000000008002b70       0x3c /tmp/cc5Oa950.ltrans1.ltrans.o
                0x0000000008002b70                chThdDequeueAllI
 *fill*         0x0000000008002bac        0x4 
 .text.chThdResumeI
                0x0000000008002bb0       0x2c /tmp/cc5Oa950.ltrans1.ltrans.o
                0x0000000008002bb0                chThdResumeI
 *fill*         0x0000000008002bdc        0x4 
 .text.chThdExitS
                0x0000000008002be0       0x4c /tmp/cc5Oa950.ltrans1.ltrans.o
                0x0000000008002be0                chThdExitS
 *fill*         0x0000000008002c2c        0x4 
 .text._dbg_check_leave_isr
                0x0000000008002c30       0x2c /tmp/cc5Oa950.ltrans1.ltrans.o
                0x0000000008002c30                _dbg_check_leave_isr
 *fill*         0x0000000008002c5c        0x4 
 .text._dbg_check_enter_isr
                0x0000000008002c60       0x2c /tmp/cc5Oa950.ltrans1.ltrans.o
                0x0000000008002c60                _dbg_check_enter_isr
 *fill*         0x0000000008002c8c        0x4 
 .text._dbg_check_unlock_from_isr
                0x0000000008002c90       0x24 /tmp/cc5Oa950.ltrans1.ltrans.o
                0x0000000008002c90                _dbg_check_unlock_from_isr
 *fill*         0x0000000008002cb4        0xc 
 .text._dbg_check_lock_from_isr
                0x0000000008002cc0       0x24 /tmp/cc5Oa950.ltrans1.ltrans.o
                0x0000000008002cc0                _dbg_check_lock_from_isr
 *fill*         0x0000000008002ce4        0xc 
 .text.wakeup   0x0000000008002cf0       0x6c /tmp/cc5Oa950.ltrans1.ltrans.o
 *fill*         0x0000000008002d5c        0x4 
 .text._dbg_check_unlock
                0x0000000008002d60       0x20 /tmp/cc5Oa950.ltrans1.ltrans.o
                0x0000000008002d60                _dbg_check_unlock
 .text._dbg_check_lock
                0x0000000008002d80       0x20 /tmp/cc5Oa950.ltrans1.ltrans.o
                0x0000000008002d80                _dbg_check_lock
 .text.ibqReadTimeout
                0x0000000008002da0      0x168 /tmp/cc5Oa950.ltrans1.ltrans.o
                0x0000000008002da0                ibqReadTimeout
 *fill*         0x0000000008002f08        0x8 
 .text.ibqGetTimeout
                0x0000000008002f10       0x90 /tmp/cc5Oa950.ltrans1.ltrans.o
                0x0000000008002f10                ibqGetTimeout
 .text.chCoreAlloc
                0x0000000008002fa0       0x70 /tmp/cc5Oa950.ltrans1.ltrans.o
                0x0000000008002fa0                chCoreAlloc
 .text.chThdExit
                0x0000000008003010       0x18 /tmp/cc5Oa950.ltrans1.ltrans.o
                0x0000000008003010                chThdExit
 *fill*         0x0000000008003028        0x8 
 .text.chThdSleepUntil
                0x0000000008003030       0x54 /tmp/cc5Oa950.ltrans1.ltrans.o
                0x0000000008003030                chThdSleepUntil
 *fill*         0x0000000008003084        0xc 
 .text.chThdSleep
                0x0000000008003090       0x5c /tmp/cc5Oa950.ltrans1.ltrans.o
                0x0000000008003090                chThdSleep
 *fill*         0x00000000080030ec        0x4 
 .text.chThdCreateStatic
                0x00000000080030f0       0x90 /tmp/cc5Oa950.ltrans1.ltrans.o
                0x00000000080030f0                chThdCreateStatic
 .text.chSysPolledDelayX
                0x0000000008003180       0x14 /tmp/cc5Oa950.ltrans1.ltrans.o
                0x0000000008003180                chSysPolledDelayX
 *fill*         0x0000000008003194        0xc 
 .text._unhandled_exception
                0x00000000080031a0        0x4 /tmp/cc5Oa950.ltrans1.ltrans.o
                0x00000000080031a0                DebugMon_Handler
                0x00000000080031a0                Vector1A0
                0x00000000080031a0                Vector11C
                0x00000000080031a0                HardFault_Handler
                0x00000000080031a0                Vector1B8
                0x00000000080031a0                Vector19C
                0x00000000080031a0                SysTick_Handler
                0x00000000080031a0                PendSV_Handler
                0x00000000080031a0                Vector168
                0x00000000080031a0                NMI_Handler
                0x00000000080031a0                Vector110
                0x00000000080031a0                VectorC8
                0x00000000080031a0                VectorA8
                0x00000000080031a0                Vector160
                0x00000000080031a0                Vector1B0
                0x00000000080031a0                UsageFault_Handler
                0x00000000080031a0                Vector40
                0x00000000080031a0                Vector108
                0x00000000080031a0                VectorBC
                0x00000000080031a0                Vector190
                0x00000000080031a0                Vector188
                0x00000000080031a0                Vector198
                0x00000000080031a0                Vector118
                0x00000000080031a0                VectorCC
                0x00000000080031a0                Vector54
                0x00000000080031a0                VectorD8
                0x00000000080031a0                Vector24
                0x00000000080031a0                Vector1AC
                0x00000000080031a0                Vector178
                0x00000000080031a0                Vector1A4
                0x00000000080031a0                VectorD0
                0x00000000080031a0                Vector1B4
                0x00000000080031a0                VectorC0
                0x00000000080031a0                Vector134
                0x00000000080031a0                Vector100
                0x00000000080031a0                VectorF4
                0x00000000080031a0                MemManage_Handler
                0x00000000080031a0                VectorA0
                0x00000000080031a0                VectorC4
                0x00000000080031a0                Vector180
                0x00000000080031a0                Vector114
                0x00000000080031a0                Vector164
                0x00000000080031a0                Vector1C
                0x00000000080031a0                Vector1BC
                0x00000000080031a0                Vector17C
                0x00000000080031a0                Vector1A8
                0x00000000080031a0                Vector16C
                0x00000000080031a0                Vector15C
                0x00000000080031a0                Vector88
                0x00000000080031a0                Vector184
                0x00000000080031a0                Vector10C
                0x00000000080031a0                BusFault_Handler
                0x00000000080031a0                Vector50
                0x00000000080031a0                Vector194
                0x00000000080031a0                Vector28
                0x00000000080031a0                Vector34
                0x00000000080031a0                Vector20
                0x00000000080031a0                Vector18C
 *fill*         0x00000000080031a4        0xc 
 .text.__init_ram_areas
                0x00000000080031b0       0x4c /tmp/cc5Oa950.ltrans1.ltrans.o
                0x00000000080031b0                __init_ram_areas
 *fill*         0x00000000080031fc        0x4 
 .text.__default_exit
                0x0000000008003200        0x4 /tmp/cc5Oa950.ltrans1.ltrans.o
                0x0000000008003200                __default_exit
 *fill*         0x0000000008003204        0xc 
 .text.__late_init
                0x0000000008003210        0x4 /tmp/cc5Oa950.ltrans1.ltrans.o
                0x0000000008003210                __late_init
 *fill*         0x0000000008003214        0xc 
 .text.__core_init
                0x0000000008003220        0x4 /tmp/cc5Oa950.ltrans1.ltrans.o
                0x0000000008003220                __core_init
 *fill*         0x0000000008003224        0xc 
 .text.matlab_thread
                0x0000000008003230       0xb4 /tmp/cc5Oa950.ltrans2.ltrans.o
 *fill*         0x00000000080032e4        0xc 
 .text.imuGetDataRaw
                0x00000000080032f0      0x190 /tmp/cc5Oa950.ltrans2.ltrans.o
 .text.cmd_temp
                0x0000000008003480       0x2c /tmp/cc5Oa950.ltrans2.ltrans.o
                0x0000000008003480                cmd_temp
 *fill*         0x00000000080034ac        0x4 
 .text.cmd_test
                0x00000000080034b0       0x40 /tmp/cc5Oa950.ltrans2.ltrans.o
                0x00000000080034b0                cmd_test
 .text.cmd_calibrate
                0x00000000080034f0      0x968 /tmp/cc5Oa950.ltrans2.ltrans.o
                0x00000000080034f0                cmd_calibrate
 *fill*         0x0000000008003e58        0x8 
 .text.gyro_txrx_spi.lto_priv.179
                0x0000000008003e60       0x58 /tmp/cc5Oa950.ltrans2.ltrans.o
                0x0000000008003e60                gyro_txrx_spi.lto_priv.179
 *fill*         0x0000000008003eb8        0x8 
 .text.gyro_get_raw_vel
                0x0000000008003ec0       0x24 /tmp/cc5Oa950.ltrans2.ltrans.o
                0x0000000008003ec0                gyro_get_raw_vel
 *fill*         0x0000000008003ee4        0xc 
 .text.imuGetData
                0x0000000008003ef0      0x1c8 /tmp/cc5Oa950.ltrans2.ltrans.o
                0x0000000008003ef0                imuGetData
 *fill*         0x00000000080040b8        0x8 
 .text.flashWrite.part.5.lto_priv.105
                0x00000000080040c0       0xa8 /tmp/cc5Oa950.ltrans2.ltrans.o
                0x00000000080040c0                flashWrite.part.5.lto_priv.105
 *fill*         0x0000000008004168        0x8 
 .text.flashUnlock.part.1.lto_priv.106
                0x0000000008004170       0x20 /tmp/cc5Oa950.ltrans2.ltrans.o
                0x0000000008004170                flashUnlock.part.1.lto_priv.106
 .text.flashRead
                0x0000000008004190       0x58 /tmp/cc5Oa950.ltrans2.ltrans.o
                0x0000000008004190                flashRead
 *fill*         0x00000000080041e8        0x8 
 .text.gyro_thread.lto_priv.138
                0x00000000080041f0       0xc8 /tmp/cc5Oa950.ltrans2.ltrans.o
                0x00000000080041f0                gyro_thread.lto_priv.138
 *fill*         0x00000000080042b8        0x8 
 .text.cmd_data
                0x00000000080042c0       0xd8 /tmp/cc5Oa950.ltrans2.ltrans.o
                0x00000000080042c0                cmd_data
 *fill*         0x0000000008004398        0x8 
 .text.sdc_lld_is_write_protected
                0x00000000080043a0        0x4 /tmp/cc5Oa950.ltrans3.ltrans.o
                0x00000000080043a0                sdc_lld_is_write_protected
 *fill*         0x00000000080043a4        0xc 
 .text.sdc_lld_is_card_inserted
                0x00000000080043b0        0x4 /tmp/cc5Oa950.ltrans3.ltrans.o
                0x00000000080043b0                sdc_lld_is_card_inserted
 *fill*         0x00000000080043b4        0xc 
 .text.serve_usart_irq
                0x00000000080043c0       0xc4 /tmp/cc5Oa950.ltrans3.ltrans.o
 *fill*         0x0000000008004484        0xc 
 .text.VectorDC
                0x0000000008004490       0x20 /tmp/cc5Oa950.ltrans3.ltrans.o
 .text.VectorD4
                0x00000000080044b0       0x20 /tmp/cc5Oa950.ltrans3.ltrans.o
 .text.uart_lld_serve_tx_end_irq
                0x00000000080044d0       0x80 /tmp/cc5Oa950.ltrans3.ltrans.o
 .text.uart_lld_serve_rx_end_irq
                0x0000000008004550       0xbc /tmp/cc5Oa950.ltrans3.ltrans.o
 *fill*         0x000000000800460c        0x4 
 .text.get_ldnumber.lto_priv.178
                0x0000000008004610       0x7c /tmp/cc5Oa950.ltrans3.ltrans.o
                0x0000000008004610                get_ldnumber.lto_priv.178
 *fill*         0x000000000800468c        0x4 
 .text.dir_sdi.lto_priv.96
                0x0000000008004690       0xa0 /tmp/cc5Oa950.ltrans3.ltrans.o
                0x0000000008004690                dir_sdi.lto_priv.96
 .text.create_chain.lto_priv.101
                0x0000000008004730       0xc4 /tmp/cc5Oa950.ltrans3.ltrans.o
                0x0000000008004730                create_chain.lto_priv.101
 *fill*         0x00000000080047f4        0xc 
 .text.dir_next.lto_priv.98
                0x0000000008004800      0x138 /tmp/cc5Oa950.ltrans3.ltrans.o
                0x0000000008004800                dir_next.lto_priv.98
 *fill*         0x0000000008004938        0x8 
 .text.move_window.lto_priv.88
                0x0000000008004940       0x34 /tmp/cc5Oa950.ltrans3.ltrans.o
                0x0000000008004940                move_window.lto_priv.88
 *fill*         0x0000000008004974        0xc 
 .text.disk_write
                0x0000000008004980       0x2c /tmp/cc5Oa950.ltrans3.ltrans.o
                0x0000000008004980                disk_write
 *fill*         0x00000000080049ac        0x4 
 .text.disk_status
                0x00000000080049b0       0x18 /tmp/cc5Oa950.ltrans3.ltrans.o
                0x00000000080049b0                disk_status
 *fill*         0x00000000080049c8        0x8 
 .text.__early_init
                0x00000000080049d0       0xc8 /tmp/cc5Oa950.ltrans3.ltrans.o
                0x00000000080049d0                __early_init
 *fill*         0x0000000008004a98        0x8 
 .text.uart_lld_start_receive
                0x0000000008004aa0       0x38 /tmp/cc5Oa950.ltrans3.ltrans.o
                0x0000000008004aa0                uart_lld_start_receive
 *fill*         0x0000000008004ad8        0x8 
 .text.uart_lld_start
                0x0000000008004ae0      0x1f0 /tmp/cc5Oa950.ltrans3.ltrans.o
                0x0000000008004ae0                uart_lld_start
 .text.pwm_lld_serve_interrupt
                0x0000000008004cd0       0x5c /tmp/cc5Oa950.ltrans3.ltrans.o
                0x0000000008004cd0                pwm_lld_serve_interrupt
 *fill*         0x0000000008004d2c        0x4 
 .text.VectorEC
                0x0000000008004d30       0x20 /tmp/cc5Oa950.ltrans3.ltrans.o
 .text.pwm_lld_start
                0x0000000008004d50      0x21c /tmp/cc5Oa950.ltrans3.ltrans.o
                0x0000000008004d50                pwm_lld_start
 *fill*         0x0000000008004f6c        0x4 
 .text.sduInterruptTransmitted
                0x0000000008004f70        0x4 /tmp/cc5Oa950.ltrans4.ltrans.o
                0x0000000008004f70                sduInterruptTransmitted
 *fill*         0x0000000008004f74        0xc 
 .text.sduRequestsHook
                0x0000000008004f80       0x40 /tmp/cc5Oa950.ltrans4.ltrans.o
                0x0000000008004f80                sduRequestsHook
 .text.ibnotify.lto_priv.161
                0x0000000008004fc0        0x8 /tmp/cc5Oa950.ltrans4.ltrans.o
                0x0000000008004fc0                ibnotify.lto_priv.161
 *fill*         0x0000000008004fc8        0x8 
 .text.sduDataReceived
                0x0000000008004fd0       0xc8 /tmp/cc5Oa950.ltrans4.ltrans.o
                0x0000000008004fd0                sduDataReceived
 *fill*         0x0000000008005098        0x8 
 .text.usbStartTransmitI
                0x00000000080050a0       0x64 /tmp/cc5Oa950.ltrans4.ltrans.o
                0x00000000080050a0                usbStartTransmitI
 *fill*         0x0000000008005104        0xc 
 .text.sduDataTransmitted
                0x0000000008005110       0xf0 /tmp/cc5Oa950.ltrans4.ltrans.o
                0x0000000008005110                sduDataTransmitted
 .text.obnotify.lto_priv.162
                0x0000000008005200       0x48 /tmp/cc5Oa950.ltrans4.ltrans.o
                0x0000000008005200                obnotify.lto_priv.162
 *fill*         0x0000000008005248        0x8 
 .text.usbStartReceiveI
                0x0000000008005250       0x64 /tmp/cc5Oa950.ltrans4.ltrans.o
                0x0000000008005250                usbStartReceiveI
 *fill*         0x00000000080052b4        0xc 
 .text.usbInitEndpointI
                0x00000000080052c0      0x1c4 /tmp/cc5Oa950.ltrans4.ltrans.o
                0x00000000080052c0                usbInitEndpointI
 *fill*         0x0000000008005484        0xc 
 .text.spiReleaseBus
                0x0000000008005490       0xe4 /tmp/cc5Oa950.ltrans4.ltrans.o
                0x0000000008005490                spiReleaseBus
 *fill*         0x0000000008005574        0xc 
 .text.spiAcquireBus
                0x0000000008005580      0x144 /tmp/cc5Oa950.ltrans4.ltrans.o
                0x0000000008005580                spiAcquireBus
 *fill*         0x00000000080056c4        0xc 
 .text.spiStart
                0x00000000080056d0      0x160 /tmp/cc5Oa950.ltrans4.ltrans.o
                0x00000000080056d0                spiStart
 .text.spiReceive
                0x0000000008005830       0xc0 /tmp/cc5Oa950.ltrans4.ltrans.o
                0x0000000008005830                spiReceive
 .text.spiSend  0x00000000080058f0       0xc0 /tmp/cc5Oa950.ltrans4.ltrans.o
                0x00000000080058f0                spiSend
 .text.spiUnselect
                0x00000000080059b0       0x74 /tmp/cc5Oa950.ltrans4.ltrans.o
                0x00000000080059b0                spiUnselect
 *fill*         0x0000000008005a24        0xc 
 .text.spiSelect
                0x0000000008005a30       0x74 /tmp/cc5Oa950.ltrans4.ltrans.o
                0x0000000008005a30                spiSelect
 *fill*         0x0000000008005aa4        0xc 
 .text._mmcsd_get_slice
                0x0000000008005ab0       0x60 /tmp/cc5Oa950.ltrans5.ltrans.o
 .text.unlikely._mmcsd_get_capacity
                0x0000000008005b10       0x6c /tmp/cc5Oa950.ltrans5.ltrans.o
 *fill*         0x0000000008005b7c        0x4 
 .text.sdcConnect
                0x0000000008005b80      0x3f8 /tmp/cc5Oa950.ltrans5.ltrans.o
                0x0000000008005b80                sdcConnect
 *fill*         0x0000000008005f78        0x8 
 .text.obqPostFullBufferS
                0x0000000008005f80       0x60 /tmp/cc5Oa950.ltrans5.ltrans.o
 .text.obqGetEmptyBufferTimeoutS
                0x0000000008005fe0       0x44 /tmp/cc5Oa950.ltrans5.ltrans.o
 *fill*         0x0000000008006024        0xc 
 .text._sdc_wait_for_transfer_state
                0x0000000008006030       0x40 /tmp/cc5Oa950.ltrans5.ltrans.o
                0x0000000008006030                _sdc_wait_for_transfer_state
 .text.obqGetFullBufferI
                0x0000000008006070       0x28 /tmp/cc5Oa950.ltrans5.ltrans.o
                0x0000000008006070                obqGetFullBufferI
 *fill*         0x0000000008006098        0x8 
 .text.chSysUnlock.lto_priv.102
                0x00000000080060a0       0x34 /tmp/cc5Oa950.ltrans5.ltrans.o
                0x00000000080060a0                chSysUnlock.lto_priv.102
 *fill*         0x00000000080060d4        0xc 
 .text.pwmEnableChannel
                0x00000000080060e0       0x84 /tmp/cc5Oa950.ltrans5.ltrans.o
                0x00000000080060e0                pwmEnableChannel
 *fill*         0x0000000008006164        0xc 
 .text.chSysUnlock.lto_priv.131
                0x0000000008006170       0x34 /tmp/cc5Oa950.ltrans5.ltrans.o
                0x0000000008006170                chSysUnlock.lto_priv.131
 *fill*         0x00000000080061a4        0xc 
 .text.chSysUnlock.lto_priv.91
                0x00000000080061b0       0x34 /tmp/cc5Oa950.ltrans5.ltrans.o
                0x00000000080061b0                chSysUnlock.lto_priv.91
 *fill*         0x00000000080061e4        0xc 
 .text.obqWriteTimeout
                0x00000000080061f0      0x17c /tmp/cc5Oa950.ltrans5.ltrans.o
                0x00000000080061f0                obqWriteTimeout
 *fill*         0x000000000800636c        0x4 
 .text.obqPutTimeout
                0x0000000008006370       0xa0 /tmp/cc5Oa950.ltrans5.ltrans.o
                0x0000000008006370                obqPutTimeout
 .text.Vector158
                0x0000000008006410       0x38 /tmp/cc5Oa950.ltrans6.ltrans.o
                0x0000000008006410                Vector158
 *fill*         0x0000000008006448        0x8 
 .text.Vector154
                0x0000000008006450       0x38 /tmp/cc5Oa950.ltrans6.ltrans.o
                0x0000000008006450                Vector154
 *fill*         0x0000000008006488        0x8 
 .text.Vector150
                0x0000000008006490       0x38 /tmp/cc5Oa950.ltrans6.ltrans.o
                0x0000000008006490                Vector150
 *fill*         0x00000000080064c8        0x8 
 .text.Vector130
                0x00000000080064d0       0x34 /tmp/cc5Oa950.ltrans6.ltrans.o
                0x00000000080064d0                Vector130
 *fill*         0x0000000008006504        0xc 
 .text.Vector12C
                0x0000000008006510       0x38 /tmp/cc5Oa950.ltrans6.ltrans.o
                0x0000000008006510                Vector12C
 *fill*         0x0000000008006548        0x8 
 .text.Vector128
                0x0000000008006550       0x38 /tmp/cc5Oa950.ltrans6.ltrans.o
                0x0000000008006550                Vector128
 *fill*         0x0000000008006588        0x8 
 .text.Vector124
                0x0000000008006590       0x38 /tmp/cc5Oa950.ltrans6.ltrans.o
                0x0000000008006590                Vector124
 *fill*         0x00000000080065c8        0x8 
 .text.Vector120
                0x00000000080065d0       0x34 /tmp/cc5Oa950.ltrans6.ltrans.o
                0x00000000080065d0                Vector120
 *fill*         0x0000000008006604        0xc 
 .text.VectorFC
                0x0000000008006610       0x38 /tmp/cc5Oa950.ltrans6.ltrans.o
                0x0000000008006610                VectorFC
 *fill*         0x0000000008006648        0x8 
 .text.Vector84
                0x0000000008006650       0x38 /tmp/cc5Oa950.ltrans6.ltrans.o
                0x0000000008006650                Vector84
 *fill*         0x0000000008006688        0x8 
 .text.Vector80
                0x0000000008006690       0x38 /tmp/cc5Oa950.ltrans6.ltrans.o
                0x0000000008006690                Vector80
 *fill*         0x00000000080066c8        0x8 
 .text.Vector7C
                0x00000000080066d0       0x34 /tmp/cc5Oa950.ltrans6.ltrans.o
                0x00000000080066d0                Vector7C
 *fill*         0x0000000008006704        0xc 
 .text.Vector78
                0x0000000008006710       0x38 /tmp/cc5Oa950.ltrans6.ltrans.o
                0x0000000008006710                Vector78
 *fill*         0x0000000008006748        0x8 
 .text.Vector74
                0x0000000008006750       0x38 /tmp/cc5Oa950.ltrans6.ltrans.o
                0x0000000008006750                Vector74
 *fill*         0x0000000008006788        0x8 
 .text.Vector70
                0x0000000008006790       0x38 /tmp/cc5Oa950.ltrans6.ltrans.o
                0x0000000008006790                Vector70
 *fill*         0x00000000080067c8        0x8 
 .text.Vector6C
                0x00000000080067d0       0x34 /tmp/cc5Oa950.ltrans6.ltrans.o
                0x00000000080067d0                Vector6C
 *fill*         0x0000000008006804        0xc 
 .text.VectorB0
                0x0000000008006810       0xf4 /tmp/cc5Oa950.ltrans6.ltrans.o
                0x0000000008006810                VectorB0
 *fill*         0x0000000008006904        0xc 
 .text._usb_ep0out
                0x0000000008006910       0xa8 /tmp/cc5Oa950.ltrans6.ltrans.o
                0x0000000008006910                _usb_ep0out
 *fill*         0x00000000080069b8        0x8 
 .text._usb_ep0in
                0x00000000080069c0       0xf0 /tmp/cc5Oa950.ltrans6.ltrans.o
                0x00000000080069c0                _usb_ep0in
 .text._usb_ep0setup
                0x0000000008006ab0      0x434 /tmp/cc5Oa950.ltrans6.ltrans.o
                0x0000000008006ab0                _usb_ep0setup
 *fill*         0x0000000008006ee4        0xc 
 .text.can_lld_rx0_handler.lto_priv.190
                0x0000000008006ef0       0x78 /tmp/cc5Oa950.ltrans6.ltrans.o
                0x0000000008006ef0                can_lld_rx0_handler.lto_priv.190
 *fill*         0x0000000008006f68        0x8 
 .text.can_lld_tx_handler.lto_priv.191
                0x0000000008006f70       0x74 /tmp/cc5Oa950.ltrans6.ltrans.o
                0x0000000008006f70                can_lld_tx_handler.lto_priv.191
 *fill*         0x0000000008006fe4        0xc 
 .text.dmaStreamAllocate
                0x0000000008006ff0       0xd0 /tmp/cc5Oa950.ltrans6.ltrans.o
                0x0000000008006ff0                dmaStreamAllocate
 .text.otg_epout_handler
                0x00000000080070c0       0xac /tmp/cc5Oa950.ltrans7.ltrans.o
 *fill*         0x000000000800716c        0x4 
 .text.otg_epin_handler
                0x0000000008007170       0xd4 /tmp/cc5Oa950.ltrans7.ltrans.o
 *fill*         0x0000000008007244        0xc 
 .text.Vector4C
                0x0000000008007250       0x3c /tmp/cc5Oa950.ltrans7.ltrans.o
                0x0000000008007250                Vector4C
 *fill*         0x000000000800728c        0x4 
 .text.Vector48
                0x0000000008007290       0x3c /tmp/cc5Oa950.ltrans7.ltrans.o
                0x0000000008007290                Vector48
 *fill*         0x00000000080072cc        0x4 
 .text.Vector170
                0x00000000080072d0       0x3c /tmp/cc5Oa950.ltrans7.ltrans.o
                0x00000000080072d0                Vector170
 *fill*         0x000000000800730c        0x4 
 .text.Vector138
                0x0000000008007310       0x3c /tmp/cc5Oa950.ltrans7.ltrans.o
                0x0000000008007310                Vector138
 *fill*         0x000000000800734c        0x4 
 .text.VectorE8
                0x0000000008007350       0x3c /tmp/cc5Oa950.ltrans7.ltrans.o
                0x0000000008007350                VectorE8
 *fill*         0x000000000800738c        0x4 
 .text.VectorE4
                0x0000000008007390       0x3c /tmp/cc5Oa950.ltrans7.ltrans.o
                0x0000000008007390                VectorE4
 *fill*         0x00000000080073cc        0x4 
 .text.Vector44
                0x00000000080073d0       0x3c /tmp/cc5Oa950.ltrans7.ltrans.o
                0x00000000080073d0                Vector44
 *fill*         0x000000000800740c        0x4 
 .text.VectorE0
                0x0000000008007410       0x8c /tmp/cc5Oa950.ltrans7.ltrans.o
                0x0000000008007410                VectorE0
 *fill*         0x000000000800749c        0x4 
 .text.Vector9C
                0x00000000080074a0       0x7c /tmp/cc5Oa950.ltrans7.ltrans.o
                0x00000000080074a0                Vector9C
 *fill*         0x000000000800751c        0x4 
 .text.Vector68
                0x0000000008007520       0x38 /tmp/cc5Oa950.ltrans7.ltrans.o
                0x0000000008007520                Vector68
 *fill*         0x0000000008007558        0x8 
 .text.Vector64
                0x0000000008007560       0x38 /tmp/cc5Oa950.ltrans7.ltrans.o
                0x0000000008007560                Vector64
 *fill*         0x0000000008007598        0x8 
 .text.Vector60
                0x00000000080075a0       0x38 /tmp/cc5Oa950.ltrans7.ltrans.o
                0x00000000080075a0                Vector60
 *fill*         0x00000000080075d8        0x8 
 .text.Vector5C
                0x00000000080075e0       0x38 /tmp/cc5Oa950.ltrans7.ltrans.o
                0x00000000080075e0                Vector5C
 *fill*         0x0000000008007618        0x8 
 .text.Vector58
                0x0000000008007620       0x38 /tmp/cc5Oa950.ltrans7.ltrans.o
                0x0000000008007620                Vector58
 *fill*         0x0000000008007658        0x8 
 .text.Vector140
                0x0000000008007660       0x20 /tmp/cc5Oa950.ltrans7.ltrans.o
                0x0000000008007660                Vector140
 .text.Vector90
                0x0000000008007680       0x20 /tmp/cc5Oa950.ltrans7.ltrans.o
                0x0000000008007680                Vector90
 .text.Vector13C
                0x00000000080076a0       0x20 /tmp/cc5Oa950.ltrans7.ltrans.o
                0x00000000080076a0                Vector13C
 .text.Vector8C
                0x00000000080076c0       0x20 /tmp/cc5Oa950.ltrans7.ltrans.o
                0x00000000080076c0                Vector8C
 .text.can_lld_sce_handler
                0x00000000080076e0       0x74 /tmp/cc5Oa950.ltrans7.ltrans.o
 *fill*         0x0000000008007754        0xc 
 .text.Vector148
                0x0000000008007760       0x20 /tmp/cc5Oa950.ltrans7.ltrans.o
                0x0000000008007760                Vector148
 .text.Vector98
                0x0000000008007780       0x20 /tmp/cc5Oa950.ltrans7.ltrans.o
                0x0000000008007780                Vector98
 .text.can_lld_rx1_handler
                0x00000000080077a0       0x78 /tmp/cc5Oa950.ltrans7.ltrans.o
 *fill*         0x0000000008007818        0x8 
 .text.Vector144
                0x0000000008007820       0x20 /tmp/cc5Oa950.ltrans7.ltrans.o
                0x0000000008007820                Vector144
 .text.Vector94
                0x0000000008007840       0x20 /tmp/cc5Oa950.ltrans7.ltrans.o
                0x0000000008007840                Vector94
 .text.usb_lld_serve_interrupt.lto_priv.189
                0x0000000008007860      0x408 /tmp/cc5Oa950.ltrans7.ltrans.o
                0x0000000008007860                usb_lld_serve_interrupt.lto_priv.189
 *fill*         0x0000000008007c68        0x8 
 .text.can_lld_start
                0x0000000008007c70       0xf4 /tmp/cc5Oa950.ltrans7.ltrans.o
                0x0000000008007c70                can_lld_start
 *fill*         0x0000000008007d64        0xc 
 .text.rxend    0x0000000008007d70       0x3c /tmp/cc5Oa950.ltrans8.ltrans.o
 *fill*         0x0000000008007dac        0x4 
 .text.lpfilter_apply
                0x0000000008007db0       0x68 /tmp/cc5Oa950.ltrans8.ltrans.o
                0x0000000008007db0                lpfilter_apply
 *fill*         0x0000000008007e18        0x8 
 .text.gimbal_encoderUpdate.lto_priv.121
                0x0000000008007e20      0x17c /tmp/cc5Oa950.ltrans8.ltrans.o
                0x0000000008007e20                gimbal_encoderUpdate.lto_priv.121
 *fill*         0x0000000008007f9c        0x4 
 .text.lpfilter_init
                0x0000000008007fa0       0x74 /tmp/cc5Oa950.ltrans8.ltrans.o
                0x0000000008007fa0                lpfilter_init
 *fill*         0x0000000008008014        0xc 
 .text.uart_dbus_thread.lto_priv.156
                0x0000000008008020      0x398 /tmp/cc5Oa950.ltrans8.ltrans.o
                0x0000000008008020                uart_dbus_thread.lto_priv.156
 *fill*         0x00000000080083b8        0x8 
 .text.can_rx.lto_priv.158
                0x00000000080083c0      0x52c /tmp/cc5Oa950.ltrans8.ltrans.o
                0x00000000080083c0                can_rx.lto_priv.158
 *fill*         0x00000000080088ec        0x4 
 .text.f_open.constprop.21
                0x00000000080088f0      0x7b8 /tmp/cc5Oa950.ltrans9.ltrans.o
                0x00000000080088f0                f_open.constprop.21
 *fill*         0x00000000080090a8        0x8 
 .text.f_lseek.constprop.20
                0x00000000080090b0       0x18 /tmp/cc5Oa950.ltrans9.ltrans.o
                0x00000000080090b0                f_lseek.constprop.20
 *fill*         0x00000000080090c8        0x8 
 .text._strtok.constprop.19
                0x00000000080090d0       0x40 /tmp/cc5Oa950.ltrans9.ltrans.o
                0x00000000080090d0                _strtok.constprop.19
 .text.can_motorSetCurrent.constprop.2
                0x0000000008009110      0x170 /tmp/cc5Oa950.ltrans9.ltrans.o
                0x0000000008009110                can_motorSetCurrent.constprop.2
 .text.pwm3c1cb
                0x0000000008009280        0x4 /tmp/cc5Oa950.ltrans10.ltrans.o
 *fill*         0x0000000008009284        0xc 
 .text.pwm3pcb  0x0000000008009290        0x4 /tmp/cc5Oa950.ltrans10.ltrans.o
 *fill*         0x0000000008009294        0xc 
 .text.get_descriptor.lto_priv.168
                0x00000000080092a0       0x30 /tmp/cc5Oa950.ltrans10.ltrans.o
                0x00000000080092a0                get_descriptor.lto_priv.168
 .text.sdlog_thread.lto_priv.130
                0x00000000080092d0      0x38c /tmp/cc5Oa950.ltrans10.ltrans.o
                0x00000000080092d0                sdlog_thread.lto_priv.130
 *fill*         0x000000000800965c        0x4 
 .text.Temperature_thread.lto_priv.139
                0x0000000008009660      0x12c /tmp/cc5Oa950.ltrans10.ltrans.o
                0x0000000008009660                Temperature_thread.lto_priv.139
 *fill*         0x000000000800978c        0x4 
 .text.extcb10.lto_priv.165
                0x0000000008009790       0x38 /tmp/cc5Oa950.ltrans10.ltrans.o
                0x0000000008009790                extcb10.lto_priv.165
 *fill*         0x00000000080097c8        0x8 
 .text.pwm_thd  0x00000000080097d0       0x84 /tmp/cc5Oa950.ltrans10.ltrans.o
 *fill*         0x0000000008009854        0xc 
 .text.sof_handler.lto_priv.169
                0x0000000008009860       0xb8 /tmp/cc5Oa950.ltrans10.ltrans.o
                0x0000000008009860                sof_handler.lto_priv.169
 *fill*         0x0000000008009918        0x8 
 .text.usb_event.lto_priv.167
                0x0000000008009920       0xfc /tmp/cc5Oa950.ltrans10.ltrans.o
                0x0000000008009920                usb_event.lto_priv.167
 *fill*         0x0000000008009a1c        0x4 
 .text.calibrate_adi
                0x0000000008009a20      0x160 /tmp/cc5Oa950.ltrans10.ltrans.o
                0x0000000008009a20                calibrate_adi
 .text.params_set.part.0.lto_priv.180
                0x0000000008009b80      0x14c /tmp/cc5Oa950.ltrans10.ltrans.o
                0x0000000008009b80                params_set.part.0.lto_priv.180
 *fill*         0x0000000008009ccc        0x4 
 .text.param_save_flash
                0x0000000008009cd0      0x140 /tmp/cc5Oa950.ltrans10.ltrans.o
                0x0000000008009cd0                param_save_flash
 .text.pwm_shooter_init
                0x0000000008009e10      0x13c /tmp/cc5Oa950.ltrans10.ltrans.o
                0x0000000008009e10                pwm_shooter_init
 *fill*         0x0000000008009f4c        0x4 
 .text.pwm3init
                0x0000000008009f50       0x54 /tmp/cc5Oa950.ltrans10.ltrans.o
                0x0000000008009f50                pwm3init
 *fill*         0x0000000008009fa4        0xc 
 .text.MotorToggleThread.lto_priv.140
                0x0000000008009fb0      0x140 /tmp/cc5Oa950.ltrans10.ltrans.o
                0x0000000008009fb0                MotorToggleThread.lto_priv.140
 .text.chprintf
                0x000000000800a0f0      0x414 /tmp/cc5Oa950.ltrans11.ltrans.o
                0x000000000800a0f0                chprintf
 *fill*         0x000000000800a504        0xc 
 .text.Attitude_thread.lto_priv.129
                0x000000000800a510      0x940 /tmp/cc5Oa950.ltrans11.ltrans.o
                0x000000000800a510                Attitude_thread.lto_priv.129
 .text.cmd_info
                0x000000000800ae50       0xbc /tmp/cc5Oa950.ltrans12.ltrans.o
 *fill*         0x000000000800af0c        0x4 
 .text.check_fs
                0x000000000800af10       0x84 /tmp/cc5Oa950.ltrans12.ltrans.o
 *fill*         0x000000000800af94        0xc 
 .text.long_to_string_with_divisor.lto_priv.182
                0x000000000800afa0       0x48 /tmp/cc5Oa950.ltrans12.ltrans.o
                0x000000000800afa0                long_to_string_with_divisor.lto_priv.182
 *fill*         0x000000000800afe8        0x8 
 .text.dir_find.part.7.lto_priv.97
                0x000000000800aff0      0x190 /tmp/cc5Oa950.ltrans12.ltrans.o
                0x000000000800aff0                dir_find.part.7.lto_priv.97
 .text.put_fat.part.6.lto_priv.99
                0x000000000800b180      0x124 /tmp/cc5Oa950.ltrans12.ltrans.o
                0x000000000800b180                put_fat.part.6.lto_priv.99
 *fill*         0x000000000800b2a4        0xc 
 .text.get_fat.part.5.lto_priv.100
                0x000000000800b2b0       0xc4 /tmp/cc5Oa950.ltrans12.ltrans.o
                0x000000000800b2b0                get_fat.part.5.lto_priv.100
 *fill*         0x000000000800b374        0xc 
 .text.sync_window.part.1.lto_priv.89
                0x000000000800b380       0x58 /tmp/cc5Oa950.ltrans12.ltrans.o
                0x000000000800b380                sync_window.part.1.lto_priv.89
 *fill*         0x000000000800b3d8        0x8 
 .text.find_volume.lto_priv.95
                0x000000000800b3e0      0x354 /tmp/cc5Oa950.ltrans12.ltrans.o
                0x000000000800b3e0                find_volume.lto_priv.95
 *fill*         0x000000000800b734        0xc 
 .text.shell_thread.lto_priv.160
                0x000000000800b740      0x224 /tmp/cc5Oa950.ltrans12.ltrans.o
                0x000000000800b740                shell_thread.lto_priv.160
 *fill*         0x000000000800b964        0xc 
 .text.cmd_systime
                0x000000000800b970       0x70 /tmp/cc5Oa950.ltrans12.ltrans.o
 .text.rxend.lto_priv.166
                0x000000000800b9e0      0x138 /tmp/cc5Oa950.ltrans13.ltrans.o
                0x000000000800b9e0                rxend.lto_priv.166
 *fill*         0x000000000800bb18        0x8 
 .text.uart_sendLine
                0x000000000800bb20       0x50 /tmp/cc5Oa950.ltrans13.ltrans.o
 .text.params_rx.lto_priv.159
                0x000000000800bb70       0xe8 /tmp/cc5Oa950.ltrans13.ltrans.o
                0x000000000800bb70                params_rx.lto_priv.159
 *fill*         0x000000000800bc58        0x8 
 .text.gimbal_thread.lto_priv.153
                0x000000000800bc60      0x580 /tmp/cc5Oa950.ltrans13.ltrans.o
                0x000000000800bc60                gimbal_thread.lto_priv.153
 .text.params_tx
                0x000000000800c1e0      0x15c /tmp/cc5Oa950.ltrans13.ltrans.o
 *fill*         0x000000000800c33c        0x4 
 .text.gimbal_init_thread.lto_priv.152
                0x000000000800c340      0x624 /tmp/cc5Oa950.ltrans13.ltrans.o
                0x000000000800c340                gimbal_init_thread.lto_priv.152
 *fill*         0x000000000800c964        0xc 
 .text.spi_lld_serve_tx_interrupt.lto_priv.200
                0x000000000800c970       0x1c /tmp/cc5Oa950.ltrans14.ltrans.o
                0x000000000800c970                spi_lld_serve_tx_interrupt.lto_priv.200
 *fill*         0x000000000800c98c        0x4 
 .text.VectorF8
                0x000000000800c990       0x20 /tmp/cc5Oa950.ltrans14.ltrans.o
                0x000000000800c990                VectorF8
 .text.VectorF0
                0x000000000800c9b0       0x20 /tmp/cc5Oa950.ltrans14.ltrans.o
                0x000000000800c9b0                VectorF0
 .text.VectorB8
                0x000000000800c9d0       0x20 /tmp/cc5Oa950.ltrans14.ltrans.o
                0x000000000800c9d0                VectorB8
 .text.VectorB4
                0x000000000800c9f0       0x20 /tmp/cc5Oa950.ltrans14.ltrans.o
                0x000000000800c9f0                VectorB4
 .text.VectorAC
                0x000000000800ca10       0x20 /tmp/cc5Oa950.ltrans14.ltrans.o
                0x000000000800ca10                VectorAC
 .text.VectorA4
                0x000000000800ca30       0x20 /tmp/cc5Oa950.ltrans14.ltrans.o
                0x000000000800ca30                VectorA4
 .text.spi_lld_serve_rx_interrupt.lto_priv.199
                0x000000000800ca50       0x98 /tmp/cc5Oa950.ltrans14.ltrans.o
                0x000000000800ca50                spi_lld_serve_rx_interrupt.lto_priv.199
 *fill*         0x000000000800cae8        0x8 
 .text.Vector104
                0x000000000800caf0       0x48 /tmp/cc5Oa950.ltrans14.ltrans.o
                0x000000000800caf0                Vector104
 *fill*         0x000000000800cb38        0x8 
 .text.Vector174
                0x000000000800cb40       0x20 /tmp/cc5Oa950.ltrans14.ltrans.o
                0x000000000800cb40                Vector174
 .text.Vector14C
                0x000000000800cb60       0x20 /tmp/cc5Oa950.ltrans14.ltrans.o
                0x000000000800cb60                Vector14C
 .text.sdc_lld_collect_errors.isra.0.lto_priv.205
                0x000000000800cb80       0x3c /tmp/cc5Oa950.ltrans14.ltrans.o
                0x000000000800cb80                sdc_lld_collect_errors.isra.0.lto_priv.205
 *fill*         0x000000000800cbbc        0x4 
 .text.sdc_lld_send_cmd_long_crc
                0x000000000800cbc0       0x3c /tmp/cc5Oa950.ltrans14.ltrans.o
                0x000000000800cbc0                sdc_lld_send_cmd_long_crc
 *fill*         0x000000000800cbfc        0x4 
 .text.sdc_lld_send_cmd_short_crc
                0x000000000800cc00       0x30 /tmp/cc5Oa950.ltrans14.ltrans.o
                0x000000000800cc00                sdc_lld_send_cmd_short_crc
 .text.sdc_lld_error_cleanup
                0x000000000800cc30       0x6c /tmp/cc5Oa950.ltrans14.ltrans.o
 *fill*         0x000000000800cc9c        0x4 
 .text.usb_lld_start_in
                0x000000000800cca0       0xac /tmp/cc5Oa950.ltrans14.ltrans.o
                0x000000000800cca0                usb_lld_start_in
 *fill*         0x000000000800cd4c        0x4 
 .text.usb_lld_start_out
                0x000000000800cd50       0x84 /tmp/cc5Oa950.ltrans14.ltrans.o
                0x000000000800cd50                usb_lld_start_out
 *fill*         0x000000000800cdd4        0xc 
 .text.sdc_lld_wait_transaction_end
                0x000000000800cde0       0xcc /tmp/cc5Oa950.ltrans14.ltrans.o
 *fill*         0x000000000800ceac        0x4 
 .text.sdc_lld_write_aligned.part.5.lto_priv.201
                0x000000000800ceb0       0xa8 /tmp/cc5Oa950.ltrans14.ltrans.o
                0x000000000800ceb0                sdc_lld_write_aligned.part.5.lto_priv.201
 *fill*         0x000000000800cf58        0x8 
 .text.sdc_lld_read_aligned.part.4.lto_priv.202
                0x000000000800cf60       0xa4 /tmp/cc5Oa950.ltrans14.ltrans.o
                0x000000000800cf60                sdc_lld_read_aligned.part.4.lto_priv.202
 *fill*         0x000000000800d004        0xc 
 .text.sdc_lld_read_special
                0x000000000800d010       0xb4 /tmp/cc5Oa950.ltrans14.ltrans.o
                0x000000000800d010                sdc_lld_read_special
 *fill*         0x000000000800d0c4        0xc 
 .text.usb_lld_pump
                0x000000000800d0d0      0x298 /tmp/cc5Oa950.ltrans14.ltrans.o
                0x000000000800d0d0                usb_lld_pump
 *fill*         0x000000000800d368        0x8 
 .text.chSchWakeupS.constprop.83
                0x000000000800d370       0x90 /tmp/cc5Oa950.ltrans15.ltrans.o
                0x000000000800d370                chSchWakeupS.constprop.83
 .text.chThdResumeS.constprop.80
                0x000000000800d400       0x2c /tmp/cc5Oa950.ltrans15.ltrans.o
                0x000000000800d400                chThdResumeS.constprop.80
 *fill*         0x000000000800d42c        0x4 
 .text.can_lld_set_filters.constprop.73
                0x000000000800d430      0x114 /tmp/cc5Oa950.ltrans15.ltrans.o
                0x000000000800d430                can_lld_set_filters.constprop.73
 *fill*         0x000000000800d544        0xc 
 .text.ext_lld_channel_enable.constprop.56
                0x000000000800d550       0xa8 /tmp/cc5Oa950.ltrans15.ltrans.o
                0x000000000800d550                ext_lld_channel_enable.constprop.56
 *fill*         0x000000000800d5f8        0x8 
 .text.disk_read.constprop.32
                0x000000000800d600       0x24 /tmp/cc5Oa950.ltrans15.ltrans.o
                0x000000000800d600                disk_read.constprop.32
 *fill*         0x000000000800d624        0xc 
 .text.validate.constprop.29
                0x000000000800d630       0x30 /tmp/cc5Oa950.ltrans15.ltrans.o
                0x000000000800d630                validate.constprop.29
 .text.f_sync.constprop.24
                0x000000000800d660      0x16c /tmp/cc5Oa950.ltrans15.ltrans.o
                0x000000000800d660                f_sync.constprop.24
 *fill*         0x000000000800d7cc        0x4 
 .text.f_close.constprop.23
                0x000000000800d7d0       0x1c /tmp/cc5Oa950.ltrans15.ltrans.o
                0x000000000800d7d0                f_close.constprop.23
 *fill*         0x000000000800d7ec        0x4 
 .text.chThdResume.constprop.79
                0x000000000800d7f0       0x4c /tmp/cc5Oa950.ltrans15.ltrans.o
                0x000000000800d7f0                chThdResume.constprop.79
 *fill*         0x000000000800d83c        0x4 
 .text.uartStartSend.constprop.40
                0x000000000800d840       0xb0 /tmp/cc5Oa950.ltrans15.ltrans.o
                0x000000000800d840                uartStartSend.constprop.40
 .text.uartStopSend.constprop.38
                0x000000000800d8f0       0x8c /tmp/cc5Oa950.ltrans15.ltrans.o
                0x000000000800d8f0                uartStopSend.constprop.38
 *fill*         0x000000000800d97c        0x4 
 .text.sdcGetInfo
                0x000000000800d980       0x30 /tmp/cc5Oa950.ltrans16.ltrans.o
                0x000000000800d980                sdcGetInfo
 .text.sdcSync  0x000000000800d9b0       0x20 /tmp/cc5Oa950.ltrans16.ltrans.o
                0x000000000800d9b0                sdcSync
 .text.readt.lto_priv.177
                0x000000000800d9d0       0x20 /tmp/cc5Oa950.ltrans16.ltrans.o
                0x000000000800d9d0                readt.lto_priv.177
 .text.read.lto_priv.171
                0x000000000800d9f0       0x1c /tmp/cc5Oa950.ltrans16.ltrans.o
                0x000000000800d9f0                read.lto_priv.171
 *fill*         0x000000000800da0c        0x4 
 .text.writet.lto_priv.176
                0x000000000800da10       0x20 /tmp/cc5Oa950.ltrans16.ltrans.o
                0x000000000800da10                writet.lto_priv.176
 .text.write.lto_priv.170
                0x000000000800da30       0x1c /tmp/cc5Oa950.ltrans16.ltrans.o
                0x000000000800da30                write.lto_priv.170
 *fill*         0x000000000800da4c        0x4 
 .text.gett.lto_priv.175
                0x000000000800da50       0x18 /tmp/cc5Oa950.ltrans16.ltrans.o
                0x000000000800da50                gett.lto_priv.175
 *fill*         0x000000000800da68        0x8 
 .text.get.lto_priv.173
                0x000000000800da70       0x1c /tmp/cc5Oa950.ltrans16.ltrans.o
                0x000000000800da70                get.lto_priv.173
 *fill*         0x000000000800da8c        0x4 
 .text.putt.lto_priv.174
                0x000000000800da90       0x18 /tmp/cc5Oa950.ltrans16.ltrans.o
                0x000000000800da90                putt.lto_priv.174
 *fill*         0x000000000800daa8        0x8 
 .text.put.lto_priv.172
                0x000000000800dab0       0x1c /tmp/cc5Oa950.ltrans16.ltrans.o
                0x000000000800dab0                put.lto_priv.172
 *fill*         0x000000000800dacc        0x4 
 .text.sdcWrite
                0x000000000800dad0       0xd4 /tmp/cc5Oa950.ltrans16.ltrans.o
                0x000000000800dad0                sdcWrite
 *fill*         0x000000000800dba4        0xc 
 .text.sdcRead  0x000000000800dbb0       0xdc /tmp/cc5Oa950.ltrans16.ltrans.o
                0x000000000800dbb0                sdcRead
 *fill*         0x000000000800dc8c        0x4 
 .text.sdu_start_receive.lto_priv.104
                0x000000000800dc90       0x50 /tmp/cc5Oa950.ltrans16.ltrans.o
                0x000000000800dc90                sdu_start_receive.lto_priv.104
 .text.sdcDisconnect
                0x000000000800dce0       0xb4 /tmp/cc5Oa950.ltrans16.ltrans.o
                0x000000000800dce0                sdcDisconnect
 *fill*         0x000000000800dd94        0xc 
 .text.__fpclassifyf
                0x000000000800dda0       0x38 /usr/lib/gcc/arm-none-eabi/4.9.3/../../../arm-none-eabi/lib/armv7e-m/fpu/libm.a(lib_a-sf_fpclassify.o)
                0x000000000800dda0                __fpclassifyf
 *fill*         0x000000000800ddd8        0x8 
 .text.cosf     0x000000000800dde0       0x78 /usr/lib/gcc/arm-none-eabi/4.9.3/../../../arm-none-eabi/lib/armv7e-m/fpu/libm.a(lib_a-sf_cos.o)
                0x000000000800dde0                cosf
 *fill*         0x000000000800de58        0x8 
 .text.sinf     0x000000000800de60       0x7c /usr/lib/gcc/arm-none-eabi/4.9.3/../../../arm-none-eabi/lib/armv7e-m/fpu/libm.a(lib_a-sf_sin.o)
                0x000000000800de60                sinf
 *fill*         0x000000000800dedc        0x4 
 .text.tanf     0x000000000800dee0       0x5c /usr/lib/gcc/arm-none-eabi/4.9.3/../../../arm-none-eabi/lib/armv7e-m/fpu/libm.a(lib_a-sf_tan.o)
                0x000000000800dee0                tanf
 *fill*         0x000000000800df3c        0x4 
 .text.asinf    0x000000000800df40       0xbc /usr/lib/gcc/arm-none-eabi/4.9.3/../../../arm-none-eabi/lib/armv7e-m/fpu/libm.a(lib_a-wf_asin.o)
                0x000000000800df40                asinf
 *fill*         0x000000000800dffc        0x4 
 .text.atan2f   0x000000000800e000        0x4 /usr/lib/gcc/arm-none-eabi/4.9.3/../../../arm-none-eabi/lib/armv7e-m/fpu/libm.a(lib_a-wf_atan2.o)
                0x000000000800e000                atan2f
 *fill*         0x000000000800e004        0xc 
 .text.sqrtf    0x000000000800e010       0xb8 /usr/lib/gcc/arm-none-eabi/4.9.3/../../../arm-none-eabi/lib/armv7e-m/fpu/libm.a(lib_a-wf_sqrt.o)
                0x000000000800e010                sqrtf
 *fill*         0x000000000800e0c8        0x8 
 .text.__ieee754_asinf
                0x000000000800e0d0      0x1f8 /usr/lib/gcc/arm-none-eabi/4.9.3/../../../arm-none-eabi/lib/armv7e-m/fpu/libm.a(lib_a-ef_asin.o)
                0x000000000800e0d0                __ieee754_asinf
 *fill*         0x000000000800e2c8        0x8 
 .text.__ieee754_atan2f
                0x000000000800e2d0      0x16c /usr/lib/gcc/arm-none-eabi/4.9.3/../../../arm-none-eabi/lib/armv7e-m/fpu/libm.a(lib_a-ef_atan2.o)
                0x000000000800e2d0                __ieee754_atan2f
 *fill*         0x000000000800e43c        0x4 
 .text.__ieee754_rem_pio2f
                0x000000000800e440      0x290 /usr/lib/gcc/arm-none-eabi/4.9.3/../../../arm-none-eabi/lib/armv7e-m/fpu/libm.a(lib_a-ef_rem_pio2.o)
                0x000000000800e440                __ieee754_rem_pio2f
 .text.__ieee754_sqrtf
                0x000000000800e6d0       0xa4 /usr/lib/gcc/arm-none-eabi/4.9.3/../../../arm-none-eabi/lib/armv7e-m/fpu/libm.a(lib_a-ef_sqrt.o)
                0x000000000800e6d0                __ieee754_sqrtf
 *fill*         0x000000000800e774        0xc 
 .text.__kernel_cosf
                0x000000000800e780      0x104 /usr/lib/gcc/arm-none-eabi/4.9.3/../../../arm-none-eabi/lib/armv7e-m/fpu/libm.a(lib_a-kf_cos.o)
                0x000000000800e780                __kernel_cosf
 *fill*         0x000000000800e884        0xc 
 .text.__kernel_rem_pio2f
                0x000000000800e890      0x5e4 /usr/lib/gcc/arm-none-eabi/4.9.3/../../../arm-none-eabi/lib/armv7e-m/fpu/libm.a(lib_a-kf_rem_pio2.o)
                0x000000000800e890                __kernel_rem_pio2f
 *fill*         0x000000000800ee74        0xc 
 .text.__kernel_sinf
                0x000000000800ee80       0x90 /usr/lib/gcc/arm-none-eabi/4.9.3/../../../arm-none-eabi/lib/armv7e-m/fpu/libm.a(lib_a-kf_sin.o)
                0x000000000800ee80                __kernel_sinf
 .text.__kernel_tanf
                0x000000000800ef10      0x1d0 /usr/lib/gcc/arm-none-eabi/4.9.3/../../../arm-none-eabi/lib/armv7e-m/fpu/libm.a(lib_a-kf_tan.o)
                0x000000000800ef10                __kernel_tanf
 .text.matherr  0x000000000800f0e0        0x4 /usr/lib/gcc/arm-none-eabi/4.9.3/../../../arm-none-eabi/lib/armv7e-m/fpu/libm.a(lib_a-s_matherr.o)
                0x000000000800f0e0                matherr
 *fill*         0x000000000800f0e4        0xc 
 .text.nan      0x000000000800f0f0       0x10 /usr/lib/gcc/arm-none-eabi/4.9.3/../../../arm-none-eabi/lib/armv7e-m/fpu/libm.a(lib_a-s_nan.o)
                0x000000000800f0f0                nan
 .text.atanf    0x000000000800f100      0x1b8 /usr/lib/gcc/arm-none-eabi/4.9.3/../../../arm-none-eabi/lib/armv7e-m/fpu/libm.a(lib_a-sf_atan.o)
                0x000000000800f100                atanf
 *fill*         0x000000000800f2b8        0x8 
 .text.fabsf    0x000000000800f2c0       0x10 /usr/lib/gcc/arm-none-eabi/4.9.3/../../../arm-none-eabi/lib/armv7e-m/fpu/libm.a(lib_a-sf_fabs.o)
                0x000000000800f2c0                fabsf
 .text.floorf   0x000000000800f2d0       0x90 /usr/lib/gcc/arm-none-eabi/4.9.3/../../../arm-none-eabi/lib/armv7e-m/fpu/libm.a(lib_a-sf_floor.o)
                0x000000000800f2d0                floorf
 .text.scalbnf  0x000000000800f360       0xd0 /usr/lib/gcc/arm-none-eabi/4.9.3/../../../arm-none-eabi/lib/armv7e-m/fpu/libm.a(lib_a-sf_scalbn.o)
                0x000000000800f360                scalbnf
 .text.copysignf
                0x000000000800f430       0x18 /usr/lib/gcc/arm-none-eabi/4.9.3/../../../arm-none-eabi/lib/armv7e-m/fpu/libm.a(lib_a-sf_copysign.o)
                0x000000000800f430                copysignf
 *fill*         0x000000000800f448        0x8 
 .text.__errno  0x000000000800f450        0xc /usr/lib/gcc/arm-none-eabi/4.9.3/../../../arm-none-eabi/lib/armv7e-m/fpu/libg.a(lib_a-errno.o)
                0x000000000800f450                __errno
 *fill*         0x000000000800f45c        0x4 
 .text.memset   0x000000000800f460       0x9c /usr/lib/gcc/arm-none-eabi/4.9.3/../../../arm-none-eabi/lib/armv7e-m/fpu/libg.a(lib_a-memset.o)
                0x000000000800f460                memset
 *fill*         0x000000000800f4fc        0x4 
 .text.strlen   0x000000000800f500       0x5c /usr/lib/gcc/arm-none-eabi/4.9.3/../../../arm-none-eabi/lib/armv7e-m/fpu/libg.a(lib_a-strlen.o)
                0x000000000800f500                strlen
 *fill*         0x000000000800f55c        0x4 
 .text.strpbrk  0x000000000800f560       0x48 /usr/lib/gcc/arm-none-eabi/4.9.3/../../../arm-none-eabi/lib/armv7e-m/fpu/libg.a(lib_a-strpbrk.o)
                0x000000000800f560                strpbrk
 *fill*         0x000000000800f5a8        0x8 
 .text.strspn   0x000000000800f5b0       0x34 /usr/lib/gcc/arm-none-eabi/4.9.3/../../../arm-none-eabi/lib/armv7e-m/fpu/libg.a(lib_a-strspn.o)
                0x000000000800f5b0                strspn
 *(.rodata)
 *fill*         0x000000000800f5e4        0xc 
 .rodata        0x000000000800f5f0        0xc /tmp/cc5Oa950.ltrans0.ltrans.o
 *(.rodata.*)
 *fill*         0x000000000800f5fc        0x4 
 .rodata._pitch_atti_name
                0x000000000800f600       0x12 /tmp/cc5Oa950.ltrans0.ltrans.o
 *fill*         0x000000000800f612        0xe 
 .rodata.subname_accl
                0x000000000800f620       0x24 /tmp/cc5Oa950.ltrans0.ltrans.o
 *fill*         0x000000000800f644        0xc 
 .rodata.gyro_cal_name
                0x000000000800f650        0x9 /tmp/cc5Oa950.ltrans0.ltrans.o
 *fill*         0x000000000800f659        0x7 
 .rodata.subname_ff
                0x000000000800f660       0x2b /tmp/cc5Oa950.ltrans0.ltrans.o
 *fill*         0x000000000800f68b        0x5 
 .rodata.ch_debug
                0x000000000800f690       0x16 /tmp/cc5Oa950.ltrans0.ltrans.o
 *fill*         0x000000000800f6a6        0xa 
 .rodata.__func__.8806
                0x000000000800f6b0        0x9 /tmp/cc5Oa950.ltrans0.ltrans.o
 *fill*         0x000000000800f6b9        0x7 
 .rodata._pitch_vel_name
                0x000000000800f6c0       0x11 /tmp/cc5Oa950.ltrans0.ltrans.o
 *fill*         0x000000000800f6d1        0xf 
 .rodata.yaw_pos_name
                0x000000000800f6e0        0xf /tmp/cc5Oa950.ltrans0.ltrans.o
 *fill*         0x000000000800f6ef        0x1 
 .rodata.vmt    0x000000000800f6f0       0x20 /tmp/cc5Oa950.ltrans0.ltrans.o
 .rodata._yaw_atti_name
                0x000000000800f710       0x10 /tmp/cc5Oa950.ltrans0.ltrans.o
 .rodata.__func__.8426
                0x000000000800f720        0x9 /tmp/cc5Oa950.ltrans0.ltrans.o
 *fill*         0x000000000800f729        0x7 
 .rodata.__func__.6022
                0x000000000800f730        0xc /tmp/cc5Oa950.ltrans0.ltrans.o
 *fill*         0x000000000800f73c        0x4 
 .rodata.subname_gyro_cal
                0x000000000800f740        0xc /tmp/cc5Oa950.ltrans0.ltrans.o
 *fill*         0x000000000800f74c        0x4 
 .rodata.usbcfg
                0x000000000800f750       0x10 /tmp/cc5Oa950.ltrans0.ltrans.o
 .rodata._yaw_vel_name
                0x000000000800f760        0xf /tmp/cc5Oa950.ltrans0.ltrans.o
 *fill*         0x000000000800f76f        0x1 
 .rodata.sdc_vmt
                0x000000000800f770       0x20 /tmp/cc5Oa950.ltrans0.ltrans.o
 .rodata.sdccfg
                0x000000000800f790        0x8 /tmp/cc5Oa950.ltrans0.ltrans.o
 *fill*         0x000000000800f798        0x8 
 .rodata.pitch_pos_name
                0x000000000800f7a0       0x11 /tmp/cc5Oa950.ltrans0.ltrans.o
 *fill*         0x000000000800f7b1        0xf 
 .rodata.axis_ff_name
                0x000000000800f7c0        0xf /tmp/cc5Oa950.ltrans0.ltrans.o
 *fill*         0x000000000800f7cf        0x1 
 .rodata.accl_name
                0x000000000800f7d0        0xf /tmp/cc5Oa950.ltrans0.ltrans.o
 *fill*         0x000000000800f7df        0x1 
 .rodata.fsparams
                0x000000000800f7e0        0xc /tmp/cc5Oa950.ltrans0.ltrans.o
 *fill*         0x000000000800f7ec        0x4 
 .rodata.serusbcfg
                0x000000000800f7f0        0x8 /tmp/cc5Oa950.ltrans0.ltrans.o
 *fill*         0x000000000800f7f8        0x8 
 .rodata.subname_PID
                0x000000000800f800        0x9 /tmp/cc5Oa950.ltrans0.ltrans.o
 *fill*         0x000000000800f809        0x7 
 .rodata.subname_axis
                0x000000000800f810       0x11 /tmp/cc5Oa950.ltrans0.ltrans.o
 *fill*         0x000000000800f821        0xf 
 .rodata.shell_cfg1
                0x000000000800f830        0x8 /tmp/cc5Oa950.ltrans0.ltrans.o
 *fill*         0x000000000800f838        0x8 
 .rodata.__func__.8485
                0x000000000800f840       0x13 /tmp/cc5Oa950.ltrans0.ltrans.o
 *fill*         0x000000000800f853        0xd 
 .rodata.__func__.8730
                0x000000000800f860        0x9 /tmp/cc5Oa950.ltrans0.ltrans.o
 *fill*         0x000000000800f869        0x7 
 .rodata.__func__.8731
                0x000000000800f870        0xe /tmp/cc5Oa950.ltrans0.ltrans.o
 *fill*         0x000000000800f87e        0x2 
 .rodata._stm32_dma_streams
                0x000000000800f880       0xc0 /tmp/cc5Oa950.ltrans0.ltrans.o
 .rodata.init_pos_name
                0x000000000800f940       0x10 /tmp/cc5Oa950.ltrans0.ltrans.o
 .rodata.__func__.6336.lto_priv.135
                0x000000000800f950        0xc /tmp/cc5Oa950.ltrans0.ltrans.o
                0x000000000800f950                __func__.6336.lto_priv.135
 *fill*         0x000000000800f95c        0x4 
 .rodata.__func__.6336.lto_priv.136
                0x000000000800f960        0xc /tmp/cc5Oa950.ltrans0.ltrans.o
 *fill*         0x000000000800f96c        0x4 
 .rodata.cancfg
                0x000000000800f970        0x8 /tmp/cc5Oa950.ltrans0.ltrans.o
 *fill*         0x000000000800f978        0x8 
 .rodata.extcfg
                0x000000000800f980       0xb8 /tmp/cc5Oa950.ltrans0.ltrans.o
 *fill*         0x000000000800fa38        0x8 
 .rodata.commands
                0x000000000800fa40       0x28 /tmp/cc5Oa950.ltrans0.ltrans.o
 *fill*         0x000000000800fa68        0x8 
 .rodata.subname_PI
                0x000000000800fa70        0x6 /tmp/cc5Oa950.ltrans0.ltrans.o
 *fill*         0x000000000800fa76        0xa 
 .rodata.__func__.8371.lto_priv.141
                0x000000000800fa80        0x9 /tmp/cc5Oa950.ltrans0.ltrans.o
 *fill*         0x000000000800fa89        0x7 
 .rodata.__func__.8371.lto_priv.142
                0x000000000800fa90        0x9 /tmp/cc5Oa950.ltrans0.ltrans.o
 *fill*         0x000000000800fa99        0x7 
 .rodata.hsparams
                0x000000000800faa0        0xc /tmp/cc5Oa950.ltrans0.ltrans.o
 *fill*         0x000000000800faac        0x4 
 .rodata.__func__.8380
                0x000000000800fab0       0x11 /tmp/cc5Oa950.ltrans0.ltrans.o
 *fill*         0x000000000800fac1        0xf 
 .rodata.str1.4
                0x000000000800fad0       0x29 /tmp/cc5Oa950.ltrans0.ltrans.o
                                         0x2d (size before relaxing)
 *fill*         0x000000000800faf9        0x7 
 .rodata.__func__.6506
                0x000000000800fb00        0xc /tmp/cc5Oa950.ltrans0.ltrans.o
 *fill*         0x000000000800fb0c        0x4 
 .rodata.__func__.8374
                0x000000000800fb10        0xb /tmp/cc5Oa950.ltrans1.ltrans.o
 *fill*         0x000000000800fb1b        0x5 
 .rodata.__func__.6762
                0x000000000800fb20        0xd /tmp/cc5Oa950.ltrans1.ltrans.o
 *fill*         0x000000000800fb2d        0x3 
 .rodata.__func__.6196
                0x000000000800fb30        0xc /tmp/cc5Oa950.ltrans1.ltrans.o
 *fill*         0x000000000800fb3c        0x4 
 .rodata.__func__.8708
                0x000000000800fb40       0x19 /tmp/cc5Oa950.ltrans1.ltrans.o
 *fill*         0x000000000800fb59        0x7 
 .rodata.__func__.8715
                0x000000000800fb60       0x17 /tmp/cc5Oa950.ltrans1.ltrans.o
 *fill*         0x000000000800fb77        0x9 
 .rodata.__func__.6803
                0x000000000800fb80        0xd /tmp/cc5Oa950.ltrans1.ltrans.o
 *fill*         0x000000000800fb8d        0x3 
 .rodata.__func__.6791
                0x000000000800fb90        0xe /tmp/cc5Oa950.ltrans1.ltrans.o
 *fill*         0x000000000800fb9e        0x2 
 .rodata.__func__.6728
                0x000000000800fba0        0xb /tmp/cc5Oa950.ltrans1.ltrans.o
 *fill*         0x000000000800fbab        0x5 
 .rodata.str1.4
                0x000000000800fbb0       0x4d /tmp/cc5Oa950.ltrans1.ltrans.o
 *fill*         0x000000000800fbfd        0x3 
 .rodata.ram_areas
                0x000000000800fc00       0x80 /tmp/cc5Oa950.ltrans1.ltrans.o
 .rodata.__func__.6737
                0x000000000800fc80        0xd /tmp/cc5Oa950.ltrans1.ltrans.o
 *fill*         0x000000000800fc8d        0x3 
 .rodata.__func__.6022
                0x000000000800fc90        0xc /tmp/cc5Oa950.ltrans1.ltrans.o
 *fill*         0x000000000800fc9c        0x4 
 .rodata.__func__.6745
                0x000000000800fca0       0x15 /tmp/cc5Oa950.ltrans1.ltrans.o
 *fill*         0x000000000800fcb5        0xb 
 .rodata.__func__.6725
                0x000000000800fcc0        0xc /tmp/cc5Oa950.ltrans1.ltrans.o
 *fill*         0x000000000800fccc        0x4 
 .rodata.__func__.6781
                0x000000000800fcd0        0xb /tmp/cc5Oa950.ltrans1.ltrans.o
 *fill*         0x000000000800fcdb        0x5 
 .rodata.__func__.8367
                0x000000000800fce0        0xd /tmp/cc5Oa950.ltrans1.ltrans.o
 *fill*         0x000000000800fced        0x3 
 .rodata.str1.4
                0x000000000800fcf0      0x417 /tmp/cc5Oa950.ltrans2.ltrans.o
 *fill*         0x0000000008010107        0x9 
 .rodata.__func__.6022
                0x0000000008010110        0xc /tmp/cc5Oa950.ltrans2.ltrans.o
 *fill*         0x000000000801011c        0x4 
 .rodata.__func__.8395
                0x0000000008010120        0xe /tmp/cc5Oa950.ltrans3.ltrans.o
 *fill*         0x000000000801012e        0x2 
 .rodata.str1.4
                0x0000000008010130       0x10 /tmp/cc5Oa950.ltrans3.ltrans.o
 .rodata.__func__.8418
                0x0000000008010140        0xf /tmp/cc5Oa950.ltrans3.ltrans.o
 *fill*         0x000000000801014f        0x1 
 .rodata.__func__.6022.lto_priv.196
                0x0000000008010150        0xc /tmp/cc5Oa950.ltrans4.ltrans.o
 *fill*         0x000000000801015c        0x4 
 .rodata.__func__.8763
                0x0000000008010160       0x11 /tmp/cc5Oa950.ltrans4.ltrans.o
 *fill*         0x0000000008010171        0xf 
 .rodata.__func__.8431
                0x0000000008010180        0xb /tmp/cc5Oa950.ltrans4.ltrans.o
 *fill*         0x000000000801018b        0x5 
 .rodata.__func__.8771
                0x0000000008010190       0x12 /tmp/cc5Oa950.ltrans4.ltrans.o
 *fill*         0x00000000080101a2        0xe 
 .rodata.__func__.8379
                0x00000000080101b0        0xa /tmp/cc5Oa950.ltrans4.ltrans.o
 *fill*         0x00000000080101ba        0x6 
 .rodata.__func__.8435
                0x00000000080101c0        0xe /tmp/cc5Oa950.ltrans4.ltrans.o
 *fill*         0x00000000080101ce        0x2 
 .rodata.__func__.8747
                0x00000000080101d0       0x11 /tmp/cc5Oa950.ltrans4.ltrans.o
 *fill*         0x00000000080101e1        0xf 
 .rodata.__func__.8439
                0x00000000080101f0        0xe /tmp/cc5Oa950.ltrans4.ltrans.o
 *fill*         0x00000000080101fe        0x2 
 .rodata.__func__.8752
                0x0000000008010200       0x17 /tmp/cc5Oa950.ltrans4.ltrans.o
 *fill*         0x0000000008010217        0x9 
 .rodata.__func__.8383
                0x0000000008010220        0xc /tmp/cc5Oa950.ltrans4.ltrans.o
 *fill*         0x000000000801022c        0x4 
 .rodata.__func__.6728
                0x0000000008010230        0xb /tmp/cc5Oa950.ltrans4.ltrans.o
 *fill*         0x000000000801023b        0x5 
 .rodata.__func__.6208.lto_priv.211
                0x0000000008010240       0x14 /tmp/cc5Oa950.ltrans4.ltrans.o
                0x0000000008010240                __func__.6208.lto_priv.211
 *fill*         0x0000000008010254        0xc 
 .rodata.__func__.8386
                0x0000000008010260        0xe /tmp/cc5Oa950.ltrans4.ltrans.o
 *fill*         0x000000000801026e        0x2 
 .rodata.__func__.8425
                0x0000000008010270        0x8 /tmp/cc5Oa950.ltrans4.ltrans.o
 *fill*         0x0000000008010278        0x8 
 .rodata.__func__.8694
                0x0000000008010280       0x13 /tmp/cc5Oa950.ltrans4.ltrans.o
 *fill*         0x0000000008010293        0xd 
 .rodata.__func__.6022.lto_priv.197
                0x00000000080102a0        0xc /tmp/cc5Oa950.ltrans4.ltrans.o
 *fill*         0x00000000080102ac        0x4 
 .rodata.__func__.8371
                0x00000000080102b0        0x9 /tmp/cc5Oa950.ltrans4.ltrans.o
 *fill*         0x00000000080102b9        0x7 
 .rodata.__func__.6751
                0x00000000080102c0        0xc /tmp/cc5Oa950.ltrans4.ltrans.o
 *fill*         0x00000000080102cc        0x4 
 .rodata.__func__.6022.lto_priv.203
                0x00000000080102d0        0xc /tmp/cc5Oa950.ltrans5.ltrans.o
 *fill*         0x00000000080102dc        0x4 
 .rodata.__func__.6022.lto_priv.204
                0x00000000080102e0        0xc /tmp/cc5Oa950.ltrans5.ltrans.o
 *fill*         0x00000000080102ec        0x4 
 .rodata.__func__.8766
                0x00000000080102f0       0x1a /tmp/cc5Oa950.ltrans5.ltrans.o
 *fill*         0x000000000801030a        0x6 
 .rodata.__func__.8377
                0x0000000008010310       0x14 /tmp/cc5Oa950.ltrans5.ltrans.o
 *fill*         0x0000000008010324        0xc 
 .rodata.__func__.8816
                0x0000000008010330        0xb /tmp/cc5Oa950.ltrans5.ltrans.o
 *fill*         0x000000000801033b        0x5 
 .rodata.__func__.6336.lto_priv.208
                0x0000000008010340        0xc /tmp/cc5Oa950.ltrans5.ltrans.o
                0x0000000008010340                __func__.6336.lto_priv.208
 *fill*         0x000000000801034c        0x4 
 .rodata.__func__.8386
                0x0000000008010350       0x11 /tmp/cc5Oa950.ltrans5.ltrans.o
 *fill*         0x0000000008010361        0xf 
 .rodata.__func__.8775
                0x0000000008010370       0x13 /tmp/cc5Oa950.ltrans5.ltrans.o
 *fill*         0x0000000008010383        0xd 
 .rodata.__func__.8784
                0x0000000008010390       0x12 /tmp/cc5Oa950.ltrans5.ltrans.o
 *fill*         0x00000000080103a2        0xe 
 .rodata.__func__.8370
                0x00000000080103b0       0x11 /tmp/cc5Oa950.ltrans5.ltrans.o
 *fill*         0x00000000080103c1        0xf 
 .rodata.__func__.6111
                0x00000000080103d0        0xc /tmp/cc5Oa950.ltrans6.ltrans.o
 *fill*         0x00000000080103dc        0x4 
 .rodata.__func__.8445
                0x00000000080103e0       0x12 /tmp/cc5Oa950.ltrans6.ltrans.o
 *fill*         0x00000000080103f2        0xe 
 .rodata.zero_status
                0x0000000008010400        0x2 /tmp/cc5Oa950.ltrans6.ltrans.o
 *fill*         0x0000000008010402        0xe 
 .rodata.active_status
                0x0000000008010410        0x2 /tmp/cc5Oa950.ltrans6.ltrans.o
 *fill*         0x0000000008010412        0xe 
 .rodata.__func__.8825
                0x0000000008010420        0xc /tmp/cc5Oa950.ltrans6.ltrans.o
 *fill*         0x000000000801042c        0x4 
 .rodata.__func__.8752
                0x0000000008010430       0x15 /tmp/cc5Oa950.ltrans6.ltrans.o
 *fill*         0x0000000008010445        0xb 
 .rodata.halted_status
                0x0000000008010450        0x2 /tmp/cc5Oa950.ltrans6.ltrans.o
 *fill*         0x0000000008010452        0xe 
 .rodata.__func__.8811
                0x0000000008010460        0xb /tmp/cc5Oa950.ltrans6.ltrans.o
 *fill*         0x000000000801046b        0x5 
 .rodata.__func__.8425
                0x0000000008010470        0xe /tmp/cc5Oa950.ltrans7.ltrans.o
 *fill*         0x000000000801047e        0x2 
 .rodata.__func__.8726.lto_priv.193
                0x0000000008010480        0xe /tmp/cc5Oa950.ltrans7.ltrans.o
                0x0000000008010480                __func__.8726.lto_priv.193
 *fill*         0x000000000801048e        0x2 
 .rodata.ep0config
                0x0000000008010490       0x24 /tmp/cc5Oa950.ltrans7.ltrans.o
 *fill*         0x00000000080104b4        0xc 
 .rodata.__func__.8405
                0x00000000080104c0        0xb /tmp/cc5Oa950.ltrans8.ltrans.o
 *fill*         0x00000000080104cb        0x5 
 .rodata.__func__.6797
                0x00000000080104d0       0x15 /tmp/cc5Oa950.ltrans8.ltrans.o
 *fill*         0x00000000080104e5        0xb 
 .rodata.__func__.6723
                0x00000000080104f0       0x1b /tmp/cc5Oa950.ltrans8.ltrans.o
 *fill*         0x000000000801050b        0x5 
 .rodata.str1.4
                0x0000000008010510       0x21 /tmp/cc5Oa950.ltrans8.ltrans.o
 *fill*         0x0000000008010531        0xf 
 .rodata.__func__.8452
                0x0000000008010540       0x11 /tmp/cc5Oa950.ltrans8.ltrans.o
 *fill*         0x0000000008010551        0xf 
 .rodata.__func__.6022.lto_priv.125
                0x0000000008010560        0xc /tmp/cc5Oa950.ltrans8.ltrans.o
 *fill*         0x000000000801056c        0x4 
 .rodata.__func__.8371.lto_priv.143
                0x0000000008010570        0xa /tmp/cc5Oa950.ltrans8.ltrans.o
                0x0000000008010570                __func__.8371.lto_priv.143
 *fill*         0x000000000801057a        0x6 
 .rodata.__func__.6022.lto_priv.126
                0x0000000008010580        0xc /tmp/cc5Oa950.ltrans8.ltrans.o
 *fill*         0x000000000801058c        0x4 
 .rodata.__func__.8414
                0x0000000008010590       0x10 /tmp/cc5Oa950.ltrans8.ltrans.o
 .rodata.LfnOfs.lto_priv.183
                0x00000000080105a0        0xd /tmp/cc5Oa950.ltrans9.ltrans.o
                0x00000000080105a0                LfnOfs.lto_priv.183
 *fill*         0x00000000080105ad        0x3 
 .rodata.__func__.6022.lto_priv.93
                0x00000000080105b0        0xc /tmp/cc5Oa950.ltrans9.ltrans.o
                0x00000000080105b0                __func__.6022.lto_priv.93
 *fill*         0x00000000080105bc        0x4 
 .rodata.Tbl    0x00000000080105c0      0x100 /tmp/cc5Oa950.ltrans9.ltrans.o
 .rodata.__func__.8394
                0x00000000080106c0        0xc /tmp/cc5Oa950.ltrans9.ltrans.o
 *fill*         0x00000000080106cc        0x4 
 .rodata.__func__.6022.lto_priv.94
                0x00000000080106d0        0xc /tmp/cc5Oa950.ltrans9.ltrans.o
                0x00000000080106d0                __func__.6022.lto_priv.94
 *fill*         0x00000000080106dc        0x4 
 .rodata.ExCvt  0x00000000080106e0       0x80 /tmp/cc5Oa950.ltrans9.ltrans.o
 .rodata.str1.4
                0x0000000008010760       0x23 /tmp/cc5Oa950.ltrans9.ltrans.o
 *fill*         0x0000000008010783        0xd 
 .rodata.__func__.8371
                0x0000000008010790        0x9 /tmp/cc5Oa950.ltrans10.ltrans.o
 *fill*         0x0000000008010799        0x7 
 .rodata.__func__.8450
                0x00000000080107a0        0xc /tmp/cc5Oa950.ltrans10.ltrans.o
 *fill*         0x00000000080107ac        0x4 
 .rodata.vcom_string0
                0x00000000080107b0        0x4 /tmp/cc5Oa950.ltrans10.ltrans.o
 *fill*         0x00000000080107b4        0xc 
 .rodata.ep2config
                0x00000000080107c0       0x24 /tmp/cc5Oa950.ltrans10.ltrans.o
 *fill*         0x00000000080107e4        0xc 
 .rodata.vcom_string2
                0x00000000080107f0       0x38 /tmp/cc5Oa950.ltrans10.ltrans.o
 *fill*         0x0000000008010828        0x8 
 .rodata.vcom_string3
                0x0000000008010830        0x8 /tmp/cc5Oa950.ltrans10.ltrans.o
 *fill*         0x0000000008010838        0x8 
 .rodata.vcom_string1
                0x0000000008010840       0x26 /tmp/cc5Oa950.ltrans10.ltrans.o
 *fill*         0x0000000008010866        0xa 
 .rodata.vcom_strings
                0x0000000008010870       0x20 /tmp/cc5Oa950.ltrans10.ltrans.o
 .rodata.vcom_device_descriptor
                0x0000000008010890        0x8 /tmp/cc5Oa950.ltrans10.ltrans.o
 *fill*         0x0000000008010898        0x8 
 .rodata.vcom_device_descriptor_data
                0x00000000080108a0       0x12 /tmp/cc5Oa950.ltrans10.ltrans.o
 *fill*         0x00000000080108b2        0xe 
 .rodata.vcom_configuration_descriptor
                0x00000000080108c0        0x8 /tmp/cc5Oa950.ltrans10.ltrans.o
 *fill*         0x00000000080108c8        0x8 
 .rodata.str1.4
                0x00000000080108d0      0x104 /tmp/cc5Oa950.ltrans10.ltrans.o
                                        0x10c (size before relaxing)
 *fill*         0x00000000080109d4        0xc 
 .rodata.vcom_configuration_descriptor_data
                0x00000000080109e0       0x43 /tmp/cc5Oa950.ltrans10.ltrans.o
 *fill*         0x0000000008010a23        0xd 
 .rodata.__func__.6022
                0x0000000008010a30        0xc /tmp/cc5Oa950.ltrans10.ltrans.o
 *fill*         0x0000000008010a3c        0x4 
 .rodata.ep1config
                0x0000000008010a40       0x24 /tmp/cc5Oa950.ltrans10.ltrans.o
 *fill*         0x0000000008010a64        0xc 
 .rodata.MPU6500_SPI_cfg
                0x0000000008010a70        0xc /tmp/cc5Oa950.ltrans11.ltrans.o
 *fill*         0x0000000008010a7c        0x4 
 .rodata.axisName
                0x0000000008010a80        0x6 /tmp/cc5Oa950.ltrans11.ltrans.o
 *fill*         0x0000000008010a86        0xa 
 .rodata.accelBiasName
                0x0000000008010a90        0xa /tmp/cc5Oa950.ltrans11.ltrans.o
 *fill*         0x0000000008010a9a        0x6 
 .rodata.accelTNameSub1
                0x0000000008010aa0        0xc /tmp/cc5Oa950.ltrans11.ltrans.o
 *fill*         0x0000000008010aac        0x4 
 .rodata.accelTNameSub2
                0x0000000008010ab0        0x6 /tmp/cc5Oa950.ltrans11.ltrans.o
 *fill*         0x0000000008010ab6        0xa 
 .rodata.str1.4
                0x0000000008010ac0       0x1f /tmp/cc5Oa950.ltrans11.ltrans.o
 *fill*         0x0000000008010adf        0x1 
 .rodata.accelTName1
                0x0000000008010ae0        0x8 /tmp/cc5Oa950.ltrans11.ltrans.o
 *fill*         0x0000000008010ae8        0x8 
 .rodata.accelTName2
                0x0000000008010af0        0x8 /tmp/cc5Oa950.ltrans11.ltrans.o
 *fill*         0x0000000008010af8        0x8 
 .rodata.__func__.6022
                0x0000000008010b00        0xc /tmp/cc5Oa950.ltrans11.ltrans.o
 *fill*         0x0000000008010b0c        0x4 
 .rodata.pow10  0x0000000008010b10       0x24 /tmp/cc5Oa950.ltrans11.ltrans.o
 *fill*         0x0000000008010b34        0xc 
 .rodata.gyroBiasName
                0x0000000008010b40        0x9 /tmp/cc5Oa950.ltrans11.ltrans.o
 *fill*         0x0000000008010b49        0x7 
 .rodata.tbl_upper.6920
                0x0000000008010b50      0x1e0 /tmp/cc5Oa950.ltrans12.ltrans.o
 .rodata.tbl_lower.6919
                0x0000000008010d30      0x1e0 /tmp/cc5Oa950.ltrans12.ltrans.o
 .rodata.__func__.6336
                0x0000000008010f10        0xc /tmp/cc5Oa950.ltrans12.ltrans.o
 *fill*         0x0000000008010f1c        0x4 
 .rodata.str1.4
                0x0000000008010f20      0x1fa /tmp/cc5Oa950.ltrans12.ltrans.o
                                        0x1fe (size before relaxing)
 *fill*         0x000000000801111a        0x6 
 .rodata.local_commands
                0x0000000008011120       0x18 /tmp/cc5Oa950.ltrans12.ltrans.o
 *fill*         0x0000000008011138        0x8 
 .rodata.__func__.6022.lto_priv.109
                0x0000000008011140        0xc /tmp/cc5Oa950.ltrans13.ltrans.o
 *fill*         0x000000000801114c        0x4 
 .rodata.str1.4
                0x0000000008011150       0x4b /tmp/cc5Oa950.ltrans13.ltrans.o
 *fill*         0x000000000801119b        0x5 
 .rodata.__func__.6192
                0x00000000080111a0        0xc /tmp/cc5Oa950.ltrans13.ltrans.o
 *fill*         0x00000000080111ac        0x4 
 .rodata.__func__.8403.lto_priv.127
                0x00000000080111b0       0x11 /tmp/cc5Oa950.ltrans13.ltrans.o
                0x00000000080111b0                __func__.8403.lto_priv.127
 *fill*         0x00000000080111c1        0xf 
 .rodata.__func__.6022.lto_priv.110
                0x00000000080111d0        0xc /tmp/cc5Oa950.ltrans13.ltrans.o
 *fill*         0x00000000080111dc        0x4 
 .rodata.__func__.8686
                0x00000000080111e0       0x1b /tmp/cc5Oa950.ltrans14.ltrans.o
 *fill*         0x00000000080111fb        0x5 
 .rodata.__func__.8732
                0x0000000008011200       0x1b /tmp/cc5Oa950.ltrans14.ltrans.o
 *fill*         0x000000000801121b        0x5 
 .rodata.str1.4
                0x0000000008011220        0xd /tmp/cc5Oa950.ltrans14.ltrans.o
                                         0x19 (size before relaxing)
 *fill*         0x000000000801122d        0x3 
 .rodata.__func__.6336.lto_priv.187
                0x0000000008011230        0xc /tmp/cc5Oa950.ltrans14.ltrans.o
 *fill*         0x000000000801123c        0x4 
 .rodata.__func__.6336.lto_priv.188
                0x0000000008011240        0xc /tmp/cc5Oa950.ltrans14.ltrans.o
 *fill*         0x000000000801124c        0x4 
 .rodata.__func__.6809
                0x0000000008011250        0xd /tmp/cc5Oa950.ltrans15.ltrans.o
 *fill*         0x000000000801125d        0x3 
 .rodata.__func__.8381
                0x0000000008011260        0xe /tmp/cc5Oa950.ltrans15.ltrans.o
 *fill*         0x000000000801126e        0x2 
 .rodata.__func__.6022.lto_priv.86
                0x0000000008011270        0xc /tmp/cc5Oa950.ltrans15.ltrans.o
                0x0000000008011270                __func__.6022.lto_priv.86
 *fill*         0x000000000801127c        0x4 
 .rodata.__func__.6022.lto_priv.87
                0x0000000008011280        0xc /tmp/cc5Oa950.ltrans15.ltrans.o
                0x0000000008011280                __func__.6022.lto_priv.87
 .rodata.str1.4
                0x000000000801128c        0xf /tmp/cc5Oa950.ltrans15.ltrans.o
 *fill*         0x000000000801128c        0x4 
 .rodata.__func__.6753
                0x0000000008011290        0xd /tmp/cc5Oa950.ltrans15.ltrans.o
 *fill*         0x000000000801129d        0x3 
 .rodata.__func__.8392
                0x00000000080112a0        0xd /tmp/cc5Oa950.ltrans15.ltrans.o
 *fill*         0x00000000080112ad        0x3 
 .rodata.__func__.8808
                0x00000000080112b0       0x15 /tmp/cc5Oa950.ltrans16.ltrans.o
 *fill*         0x00000000080112c5        0xb 
 .rodata.__func__.8817
                0x00000000080112d0       0x16 /tmp/cc5Oa950.ltrans16.ltrans.o
 *fill*         0x00000000080112e6        0xa 
 .rodata.__func__.8827
                0x00000000080112f0        0xe /tmp/cc5Oa950.ltrans16.ltrans.o
 *fill*         0x00000000080112fe        0x2 
 .rodata.__func__.8835
                0x0000000008011300        0x8 /tmp/cc5Oa950.ltrans16.ltrans.o
 *fill*         0x0000000008011308        0x8 
 .rodata.__func__.8843
                0x0000000008011310        0x9 /tmp/cc5Oa950.ltrans16.ltrans.o
 *fill*         0x0000000008011319        0x7 
 .rodata.__func__.8853
                0x0000000008011320        0x8 /tmp/cc5Oa950.ltrans16.ltrans.o
 *fill*         0x0000000008011328        0x8 
 .rodata.__func__.8858
                0x0000000008011330        0xb /tmp/cc5Oa950.ltrans16.ltrans.o
 *fill*         0x000000000801133b        0x5 
 .rodata.str1.4
                0x0000000008011340        0x6 /usr/lib/gcc/arm-none-eabi/4.9.3/../../../arm-none-eabi/lib/armv7e-m/fpu/libm.a(lib_a-wf_asin.o)
                                          0xc (size before relaxing)
 *fill*         0x0000000008011346        0xa 
 .rodata.str1.4
                0x0000000008011350        0x6 /usr/lib/gcc/arm-none-eabi/4.9.3/../../../arm-none-eabi/lib/armv7e-m/fpu/libm.a(lib_a-wf_sqrt.o)
                                          0x8 (size before relaxing)
 *fill*         0x0000000008011356        0xa 
 .rodata.npio2_hw
                0x0000000008011360       0x80 /usr/lib/gcc/arm-none-eabi/4.9.3/../../../arm-none-eabi/lib/armv7e-m/fpu/libm.a(lib_a-ef_rem_pio2.o)
 .rodata.two_over_pi
                0x00000000080113e0      0x318 /usr/lib/gcc/arm-none-eabi/4.9.3/../../../arm-none-eabi/lib/armv7e-m/fpu/libm.a(lib_a-ef_rem_pio2.o)
 *fill*         0x00000000080116f8        0x8 
 .rodata.init_jk
                0x0000000008011700        0xc /usr/lib/gcc/arm-none-eabi/4.9.3/../../../arm-none-eabi/lib/armv7e-m/fpu/libm.a(lib_a-kf_rem_pio2.o)
 *fill*         0x000000000801170c        0x4 
 .rodata.PIo2   0x0000000008011710       0x2c /usr/lib/gcc/arm-none-eabi/4.9.3/../../../arm-none-eabi/lib/armv7e-m/fpu/libm.a(lib_a-kf_rem_pio2.o)
 *fill*         0x000000000801173c        0x4 
 .rodata.atanlo
                0x0000000008011740       0x10 /usr/lib/gcc/arm-none-eabi/4.9.3/../../../arm-none-eabi/lib/armv7e-m/fpu/libm.a(lib_a-sf_atan.o)
 .rodata.atanhi
                0x0000000008011750       0x10 /usr/lib/gcc/arm-none-eabi/4.9.3/../../../arm-none-eabi/lib/armv7e-m/fpu/libm.a(lib_a-sf_atan.o)
 .rodata.str1.4
                0x0000000008011760        0x4 /usr/lib/gcc/arm-none-eabi/4.9.3/../../../arm-none-eabi/lib/armv7e-m/fpu/libg.a(lib_a-impure.o)
 *(.glue_7t)
 .glue_7t       0x0000000008011764        0x0 linker stubs
 *(.glue_7)
 .glue_7        0x0000000008011764        0x0 linker stubs
 *(.gcc*)

.vfp11_veneer   0x0000000008011764        0x0
 .vfp11_veneer  0x0000000008011764        0x0 linker stubs

.v4_bx          0x0000000008011764        0x0
 .v4_bx         0x0000000008011764        0x0 linker stubs

.iplt           0x0000000008011764        0x0
 .iplt          0x0000000008011764        0x0 build/obj/crt0_v7m.o

.rel.dyn        0x0000000008011764        0x0
 .rel.iplt      0x0000000008011764        0x0 build/obj/crt0_v7m.o

.ARM.extab
 *(.ARM.extab* .gnu.linkonce.armextab.*)

.ARM.exidx      0x0000000008011764        0x0
                0x0000000008011764                __exidx_start = .
 *(.ARM.exidx* .gnu.linkonce.armexidx.*)
                0x0000000008011764                __exidx_end = .

.eh_frame_hdr
 *(.eh_frame_hdr)

.eh_frame
 *(.eh_frame)

.textalign      0x0000000008011764        0x4
                0x0000000008011768                . = ALIGN (0x8)
 *fill*         0x0000000008011764        0x4 
                0x0000000008011768                . = ALIGN (0x4)
                [!provide]                        PROVIDE (_etext, .)

.mstack         0x0000000020000000      0x400
                0x0000000020000000                . = ALIGN (0x8)
                0x0000000020000000                __main_stack_base__ = .
                0x0000000020000400                . = (. + __main_stack_size__)
 *fill*         0x0000000020000000      0x400 
                0x0000000020000400                . = ALIGN (0x8)
                0x0000000020000400                __main_stack_end__ = .

.pstack         0x0000000020000400      0x400
                0x0000000020000400                __process_stack_base__ = .
                0x0000000020000400                __main_thread_stack_base__ = .
                0x0000000020000800                . = (. + __process_stack_size__)
 *fill*         0x0000000020000400      0x400 
                0x0000000020000800                . = ALIGN (0x8)
                0x0000000020000800                __process_stack_end__ = .
                0x0000000020000800                __main_thread_stack_end__ = .

.data           0x0000000020000800      0x4e4 load address 0x0000000008011768
                0x0000000020000800                . = ALIGN (0x4)
                [!provide]                        PROVIDE (_textdata, LOADADDR (.data))
                [!provide]                        PROVIDE (_data, .)
                0x0000000008011768                _textdata_start = LOADADDR (.data)
                0x0000000020000800                _data_start = .
 *(.data)
 *(.data.*)
 .data.uart_cfg
                0x0000000020000800       0x20 /tmp/cc5Oa950.ltrans0.ltrans.o
 .data.linecoding
                0x0000000020000820        0x7 /tmp/cc5Oa950.ltrans4.ltrans.o
 *fill*         0x0000000020000827        0x1 
 .data.uart_cfg
                0x0000000020000828       0x20 /tmp/cc5Oa950.ltrans8.ltrans.o
 .data.rx_start_flag
                0x0000000020000848        0x1 /tmp/cc5Oa950.ltrans8.ltrans.o
 *fill*         0x0000000020000849        0x3 
 .data.pwm3cfg  0x000000002000084c       0x34 /tmp/cc5Oa950.ltrans10.ltrans.o
 .data.pwm8cfg  0x0000000020000880       0x34 /tmp/cc5Oa950.ltrans10.ltrans.o
 .data.__fdlib_version
                0x00000000200008b4        0x1 /usr/lib/gcc/arm-none-eabi/4.9.3/../../../arm-none-eabi/lib/armv7e-m/fpu/libm.a(lib_a-s_lib_ver.o)
                0x00000000200008b4                __fdlib_version
 *fill*         0x00000000200008b5        0x3 
 .data.impure_data
                0x00000000200008b8      0x428 /usr/lib/gcc/arm-none-eabi/4.9.3/../../../arm-none-eabi/lib/armv7e-m/fpu/libg.a(lib_a-impure.o)
 .data._impure_ptr
                0x0000000020000ce0        0x4 /usr/lib/gcc/arm-none-eabi/4.9.3/../../../arm-none-eabi/lib/armv7e-m/fpu/libg.a(lib_a-impure.o)
                0x0000000020000ce0                _impure_ptr
 *(.ramtext)
                0x0000000020000ce4                . = ALIGN (0x4)
                [!provide]                        PROVIDE (_edata, .)
                0x0000000020000ce4                _data_end = .

.igot.plt       0x0000000020000ce4        0x0 load address 0x0000000008011c4c
 .igot.plt      0x0000000020000ce4        0x0 build/obj/crt0_v7m.o

.bss            0x0000000020000ce8     0x80a4 load address 0x0000000008011c4c
                0x0000000020000ce8                . = ALIGN (0x4)
                0x0000000020000ce8                _bss_start = .
 *(.bss)
 *(.bss.*)
 .bss.Temperature_thread_wa
                0x0000000020000ce8     0x1170 /tmp/cc5Oa950.ltrans0.ltrans.o
 .bss.PWMD12    0x0000000020001e58       0x1c /tmp/cc5Oa950.ltrans0.ltrans.o
                0x0000000020001e58                PWMD12
 .bss.fs        0x0000000020001e74      0x230 /tmp/cc5Oa950.ltrans0.ltrans.o
 .bss.canfilter
                0x00000000200020a4      0x1c0 /tmp/cc5Oa950.ltrans0.ltrans.o
 .bss.PWMD1     0x0000000020002264       0x1c /tmp/cc5Oa950.ltrans0.ltrans.o
                0x0000000020002264                PWMD1
 .bss.sdlog_thread_wa
                0x0000000020002280      0x570 /tmp/cc5Oa950.ltrans0.ltrans.o
 .bss.PWMD4     0x00000000200027f0       0x1c /tmp/cc5Oa950.ltrans0.ltrans.o
                0x00000000200027f0                PWMD4
 *fill*         0x000000002000280c        0x4 
 .bss.default_heap
                0x0000000020002810       0x20 /tmp/cc5Oa950.ltrans0.ltrans.o
 .bss.gimbal_thread_wa
                0x0000000020002830      0x970 /tmp/cc5Oa950.ltrans0.ltrans.o
 .bss.endmem.lto_priv.209
                0x00000000200031a0        0x4 /tmp/cc5Oa950.ltrans0.ltrans.o
                0x00000000200031a0                endmem.lto_priv.209
 .bss.nextmem.lto_priv.210
                0x00000000200031a4        0x4 /tmp/cc5Oa950.ltrans0.ltrans.o
                0x00000000200031a4                nextmem.lto_priv.210
 .bss.gyro_thread_wa
                0x00000000200031a8      0x570 /tmp/cc5Oa950.ltrans0.ltrans.o
 .bss.Attitude_thread_wa
                0x0000000020003718     0x1170 /tmp/cc5Oa950.ltrans0.ltrans.o
 .bss.gimbal_init_thread_wa
                0x0000000020004888      0x970 /tmp/cc5Oa950.ltrans0.ltrans.o
 .bss.MotorToggleThread_wa
                0x00000000200051f8      0x1f0 /tmp/cc5Oa950.ltrans0.ltrans.o
 .bss.can_rx1_wa
                0x00000000200053e8      0x270 /tmp/cc5Oa950.ltrans0.ltrans.o
 .bss.pIMU      0x0000000020005658        0x4 /tmp/cc5Oa950.ltrans0.ltrans.o
                0x0000000020005658                pIMU
 .bss.CAND2     0x000000002000565c       0x30 /tmp/cc5Oa950.ltrans0.ltrans.o
                0x000000002000565c                CAND2
 .bss.dma_isr_redir.lto_priv.192
                0x000000002000568c       0x80 /tmp/cc5Oa950.ltrans0.ltrans.o
                0x000000002000568c                dma_isr_redir.lto_priv.192
 *fill*         0x000000002000570c        0x4 
 .bss.USBD1     0x0000000020005710      0x278 /tmp/cc5Oa950.ltrans0.ltrans.o
                0x0000000020005710                USBD1
 .bss.USBD2     0x0000000020005988      0x278 /tmp/cc5Oa950.ltrans0.ltrans.o
                0x0000000020005988                USBD2
 .bss.params_rx_wa
                0x0000000020005c00      0x1f0 /tmp/cc5Oa950.ltrans0.ltrans.o
 .bss.can_rx2_wa
                0x0000000020005df0      0x270 /tmp/cc5Oa950.ltrans0.ltrans.o
 .bss.shell_terminated
                0x0000000020006060        0x4 /tmp/cc5Oa950.ltrans0.ltrans.o
                0x0000000020006060                shell_terminated
 .bss.FatFs.lto_priv.184
                0x0000000020006064        0x4 /tmp/cc5Oa950.ltrans0.ltrans.o
                0x0000000020006064                FatFs.lto_priv.184
 .bss.dummytx.lto_priv.198
                0x0000000020006068        0x2 /tmp/cc5Oa950.ltrans0.ltrans.o
                0x0000000020006068                dummytx.lto_priv.198
 *fill*         0x000000002000606a        0x6 
 .bss.Shell_thread_wa
                0x0000000020006070      0x570 /tmp/cc5Oa950.ltrans0.ltrans.o
 .bss.uart_dbus_thread_wa
                0x00000000200065e0      0x370 /tmp/cc5Oa950.ltrans0.ltrans.o
 .bss.gyro_lpf  0x0000000020006950       0x1c /tmp/cc5Oa950.ltrans0.ltrans.o
 .bss.SPID4     0x000000002000696c       0x30 /tmp/cc5Oa950.ltrans0.ltrans.o
                0x000000002000696c                SPID4
 .bss.SPID5     0x000000002000699c       0x30 /tmp/cc5Oa950.ltrans0.ltrans.o
                0x000000002000699c                SPID5
 .bss.sd_scratchpad
                0x00000000200069cc      0x200 /tmp/cc5Oa950.ltrans0.ltrans.o
 .bss.side_complete_count
                0x0000000020006bcc        0x1 /tmp/cc5Oa950.ltrans2.ltrans.o
 *fill*         0x0000000020006bcd        0x3 
 .bss.imuRXData
                0x0000000020006bd0        0xe /tmp/cc5Oa950.ltrans2.ltrans.o
 *fill*         0x0000000020006bde        0x2 
 .bss.imuTXData.lto_priv.181
                0x0000000020006be0        0x5 /tmp/cc5Oa950.ltrans2.ltrans.o
                0x0000000020006be0                imuTXData.lto_priv.181
 *fill*         0x0000000020006be5        0x3 
 .bss.accel_ref
                0x0000000020006be8       0x48 /tmp/cc5Oa950.ltrans2.ltrans.o
 .bss.imuData   0x0000000020006c30        0xe /tmp/cc5Oa950.ltrans2.ltrans.o
 *fill*         0x0000000020006c3e        0x2 
 .bss.matlab_thread_handler
                0x0000000020006c40        0x4 /tmp/cc5Oa950.ltrans2.ltrans.o
 .bss.detect_attempt
                0x0000000020006c44        0x1 /tmp/cc5Oa950.ltrans2.ltrans.o
 *fill*         0x0000000020006c45        0x3 
 .bss.side_data_collected
                0x0000000020006c48        0x6 /tmp/cc5Oa950.ltrans2.ltrans.o
 .bss.calibration_state_record
                0x0000000020006c4e        0x1 /tmp/cc5Oa950.ltrans2.ltrans.o
 *fill*         0x0000000020006c4f        0x1 
 .bss.gyro.lto_priv.137
                0x0000000020006c50       0x24 /tmp/cc5Oa950.ltrans2.ltrans.o
                0x0000000020006c50                gyro.lto_priv.137
 *fill*         0x0000000020006c74        0x4 
 .bss.matlab_thread_wa
                0x0000000020006c78      0x370 /tmp/cc5Oa950.ltrans2.ltrans.o
 .bss.dummyrx   0x0000000020006fe8        0x2 /tmp/cc5Oa950.ltrans4.ltrans.o
 *fill*         0x0000000020006fea        0x2 
 .bss.ep0_state
                0x0000000020006fec       0x10 /tmp/cc5Oa950.ltrans7.ltrans.o
 .bss.ep0setup_buffer
                0x0000000020006ffc        0x8 /tmp/cc5Oa950.ltrans7.ltrans.o
 .bss.gimbal_encoder.lto_priv.154
                0x0000000020007004       0x10 /tmp/cc5Oa950.ltrans8.ltrans.o
                0x0000000020007004                gimbal_encoder.lto_priv.154
 .bss.RC_Ctl.lto_priv.155
                0x0000000020007014        0xa /tmp/cc5Oa950.ltrans8.ltrans.o
                0x0000000020007014                RC_Ctl.lto_priv.155
 *fill*         0x000000002000701e        0x2 
 .bss.rxbuf     0x0000000020007020       0x12 /tmp/cc5Oa950.ltrans8.ltrans.o
 *fill*         0x0000000020007032        0x2 
 .bss.chassis_encoder.lto_priv.157
                0x0000000020007034       0x18 /tmp/cc5Oa950.ltrans8.ltrans.o
                0x0000000020007034                chassis_encoder.lto_priv.157
 .bss.lp_pitchAngle.lto_priv.145
                0x000000002000704c       0x1c /tmp/cc5Oa950.ltrans8.ltrans.o
                0x000000002000704c                lp_pitchAngle.lto_priv.145
 .bss.dma_streams_mask.lto_priv.164
                0x0000000020007068        0x4 /tmp/cc5Oa950.ltrans8.ltrans.o
                0x0000000020007068                dma_streams_mask.lto_priv.164
 .bss.lp_yawAngle.lto_priv.144
                0x000000002000706c       0x1c /tmp/cc5Oa950.ltrans8.ltrans.o
                0x000000002000706c                lp_yawAngle.lto_priv.144
 .bss.UARTD1    0x0000000020007088       0x28 /tmp/cc5Oa950.ltrans8.ltrans.o
                0x0000000020007088                UARTD1
 .bss.uart_dbus_thread_handler
                0x00000000200070b0        0x4 /tmp/cc5Oa950.ltrans8.ltrans.o
 .bss.CAND1     0x00000000200070b4       0x30 /tmp/cc5Oa950.ltrans9.ltrans.o
                0x00000000200070b4                CAND1
 .bss.LfnBuf    0x00000000200070e4      0x200 /tmp/cc5Oa950.ltrans9.ltrans.o
 .bss.subparams_total.lto_priv.115
                0x00000000200072e4        0x1 /tmp/cc5Oa950.ltrans10.ltrans.o
                0x00000000200072e4                subparams_total.lto_priv.115
 .bss.params_total.lto_priv.114
                0x00000000200072e5        0x1 /tmp/cc5Oa950.ltrans10.ltrans.o
                0x00000000200072e5                params_total.lto_priv.114
 *fill*         0x00000000200072e6        0x2 
 .bss.ep1instate
                0x00000000200072e8       0x10 /tmp/cc5Oa950.ltrans10.ltrans.o
 .bss.MotorOn   0x00000000200072f8        0x1 /tmp/cc5Oa950.ltrans10.ltrans.o
 *fill*         0x00000000200072f9        0x7 
 .bss.pwm_thd_wa
                0x0000000020007300      0x370 /tmp/cc5Oa950.ltrans10.ltrans.o
 .bss.param_valid_flag.lto_priv.111
                0x0000000020007670        0x4 /tmp/cc5Oa950.ltrans10.ltrans.o
                0x0000000020007670                param_valid_flag.lto_priv.111
 .bss.param_private_flag.lto_priv.116
                0x0000000020007674        0x4 /tmp/cc5Oa950.ltrans10.ltrans.o
                0x0000000020007674                param_private_flag.lto_priv.116
 .bss.SDU1      0x0000000020007678      0x488 /tmp/cc5Oa950.ltrans10.ltrans.o
                0x0000000020007678                SDU1
 .bss.ep2instate
                0x0000000020007b00       0x10 /tmp/cc5Oa950.ltrans10.ltrans.o
 .bss.PWMD3     0x0000000020007b10       0x1c /tmp/cc5Oa950.ltrans10.ltrans.o
                0x0000000020007b10                PWMD3
 .bss.logger    0x0000000020007b2c       0xa8 /tmp/cc5Oa950.ltrans10.ltrans.o
                0x0000000020007b2c                logger
 .bss.PWMD8     0x0000000020007bd4       0x1c /tmp/cc5Oa950.ltrans10.ltrans.o
                0x0000000020007bd4                PWMD8
 .bss.tempPID1  0x0000000020007bf0       0x18 /tmp/cc5Oa950.ltrans10.ltrans.o
 .bss.param_name.lto_priv.117
                0x0000000020007c08       0x80 /tmp/cc5Oa950.ltrans10.ltrans.o
                0x0000000020007c08                param_name.lto_priv.117
 .bss.params.lto_priv.113
                0x0000000020007c88       0x80 /tmp/cc5Oa950.ltrans10.ltrans.o
                0x0000000020007c88                params.lto_priv.113
 .bss.ep1outstate
                0x0000000020007d08       0x10 /tmp/cc5Oa950.ltrans10.ltrans.o
 .bss.subparams.lto_priv.112
                0x0000000020007d18      0x100 /tmp/cc5Oa950.ltrans10.ltrans.o
                0x0000000020007d18                subparams.lto_priv.112
 .bss.button_thread_ref
                0x0000000020007e18        0x4 /tmp/cc5Oa950.ltrans10.ltrans.o
 .bss.subparam_name.lto_priv.118
                0x0000000020007e1c       0x80 /tmp/cc5Oa950.ltrans10.ltrans.o
                0x0000000020007e1c                subparam_name.lto_priv.118
 .bss.g_IMU1    0x0000000020007e9c       0xba /tmp/cc5Oa950.ltrans10.ltrans.o
                0x0000000020007e9c                g_IMU1
 *fill*         0x0000000020007f56        0x2 
 .bss.ist8310   0x0000000020007f58       0x28 /tmp/cc5Oa950.ltrans11.ltrans.o
 .bss._error_int
                0x0000000020007f80        0xc /tmp/cc5Oa950.ltrans11.ltrans.o
 .bss.Fsid      0x0000000020007f8c        0x2 /tmp/cc5Oa950.ltrans12.ltrans.o
 *fill*         0x0000000020007f8e        0x2 
 .bss._yaw_pos.lto_priv.146
                0x0000000020007f90       0x14 /tmp/cc5Oa950.ltrans13.ltrans.o
                0x0000000020007f90                _yaw_pos.lto_priv.146
 .bss.uart_receive_thread_handler
                0x0000000020007fa4        0x4 /tmp/cc5Oa950.ltrans13.ltrans.o
 .bss.params_tx_wa
                0x0000000020007fa8      0x1f0 /tmp/cc5Oa950.ltrans13.ltrans.o
 .bss.rxbuf     0x0000000020008198        0x7 /tmp/cc5Oa950.ltrans13.ltrans.o
 *fill*         0x000000002000819f        0x1 
 .bss._yaw_atti.lto_priv.150
                0x00000000200081a0       0x14 /tmp/cc5Oa950.ltrans13.ltrans.o
                0x00000000200081a0                _yaw_atti.lto_priv.150
 .bss._yaw_vel.lto_priv.148
                0x00000000200081b4       0x10 /tmp/cc5Oa950.ltrans13.ltrans.o
                0x00000000200081b4                _yaw_vel.lto_priv.148
 .bss.gimbal_thread_handler
                0x00000000200081c4        0x4 /tmp/cc5Oa950.ltrans13.ltrans.o
 .bss._pitch_atti.lto_priv.151
                0x00000000200081c8       0x14 /tmp/cc5Oa950.ltrans13.ltrans.o
                0x00000000200081c8                _pitch_atti.lto_priv.151
 .bss.gimbal.lto_priv.122
                0x00000000200081dc       0x8c /tmp/cc5Oa950.ltrans13.ltrans.o
                0x00000000200081dc                gimbal.lto_priv.122
 .bss._pitch_vel.lto_priv.149
                0x0000000020008268       0x10 /tmp/cc5Oa950.ltrans13.ltrans.o
                0x0000000020008268                _pitch_vel.lto_priv.149
 .bss._pitch_pos.lto_priv.147
                0x0000000020008278       0x14 /tmp/cc5Oa950.ltrans13.ltrans.o
                0x0000000020008278                _pitch_pos.lto_priv.147
 .bss.SDCD1     0x000000002000828c       0x4c /tmp/cc5Oa950.ltrans15.ltrans.o
                0x000000002000828c                SDCD1
 .bss.EXTD1     0x00000000200082d8        0x8 /tmp/cc5Oa950.ltrans15.ltrans.o
                0x00000000200082d8                EXTD1
 .bss.ch        0x00000000200082e0      0x660 /tmp/cc5Oa950.ltrans15.ltrans.o
                0x00000000200082e0                ch
 .bss.UARTD3    0x0000000020008940       0x28 /tmp/cc5Oa950.ltrans15.ltrans.o
                0x0000000020008940                UARTD3
 .bss.fil.lto_priv.90
                0x0000000020008968      0x224 /tmp/cc5Oa950.ltrans15.ltrans.o
                0x0000000020008968                fil.lto_priv.90
 .bss.u         0x0000000020008b8c      0x200 /tmp/cc5Oa950.ltrans16.ltrans.o
 *(COMMON)
                0x0000000020008d8c                . = ALIGN (0x4)
                0x0000000020008d8c                _bss_end = .
                [!provide]                        PROVIDE (end, .)

.ram0_init      0x0000000020008d8c        0x0 load address 0x0000000008011c4c
                0x0000000020008d8c                . = ALIGN (0x4)
                0x0000000008011c4c                __ram0_init_text__ = LOADADDR (.ram0_init)
                0x0000000020008d8c                __ram0_init__ = .
 *(.ram0_init)
 *(.ram0_init.*)
                0x0000000020008d8c                . = ALIGN (0x4)

.ram0           0x0000000020008d8c        0x0 load address 0x0000000008011c4c
                0x0000000020008d8c                . = ALIGN (0x4)
                0x0000000020008d8c                __ram0_clear__ = .
 *(.ram0_clear)
 *(.ram0_clear.*)
                0x0000000020008d8c                . = ALIGN (0x4)
                0x0000000020008d8c                __ram0_noinit__ = .
 *(.ram0)
 *(.ram0.*)
                0x0000000020008d8c                . = ALIGN (0x4)
                0x0000000020008d8c                __ram0_free__ = .

.ram1_init      0x0000000020000000        0x0 load address 0x0000000008011c4c
                0x0000000020000000                . = ALIGN (0x4)
                0x0000000008011c4c                __ram1_init_text__ = LOADADDR (.ram1_init)
                0x0000000020000000                __ram1_init__ = .
 *(.ram1_init)
 *(.ram1_init.*)
                0x0000000020000000                . = ALIGN (0x4)

.ram1           0x0000000020000000        0x0 load address 0x0000000008011c4c
                0x0000000020000000                . = ALIGN (0x4)
                0x0000000020000000                __ram1_clear__ = .
 *(.ram1_clear)
 *(.ram1_clear.*)
                0x0000000020000000                . = ALIGN (0x4)
                0x0000000020000000                __ram1_noinit__ = .
 *(.ram1)
 *(.ram1.*)
                0x0000000020000000                . = ALIGN (0x4)
                0x0000000020000000                __ram1_free__ = .

.ram2_init      0x000000002001c000        0x0 load address 0x0000000008011c4c
                0x000000002001c000                . = ALIGN (0x4)
                0x0000000008011c4c                __ram2_init_text__ = LOADADDR (.ram2_init)
                0x000000002001c000                __ram2_init__ = .
 *(.ram2_init)
 *(.ram2_init.*)
                0x000000002001c000                . = ALIGN (0x4)

.ram2           0x000000002001c000        0x0 load address 0x0000000008011c4c
                0x000000002001c000                . = ALIGN (0x4)
                0x000000002001c000                __ram2_clear__ = .
 *(.ram2_clear)
 *(.ram2_clear.*)
                0x000000002001c000                . = ALIGN (0x4)
                0x000000002001c000                __ram2_noinit__ = .
 *(.ram2)
 *(.ram2.*)
                0x000000002001c000                . = ALIGN (0x4)
                0x000000002001c000                __ram2_free__ = .

.ram3_init      0x0000000020020000        0x0 load address 0x0000000008011c4c
                0x0000000020020000                . = ALIGN (0x4)
                0x0000000008011c4c                __ram3_init_text__ = LOADADDR (.ram3_init)
                0x0000000020020000                __ram3_init__ = .
 *(.ram3_init)
 *(.ram3_init.*)
                0x0000000020020000                . = ALIGN (0x4)

.ram3           0x0000000020020000        0x0 load address 0x0000000008011c4c
                0x0000000020020000                . = ALIGN (0x4)
                0x0000000020020000                __ram3_clear__ = .
 *(.ram3_clear)
 *(.ram3_clear.*)
                0x0000000020020000                . = ALIGN (0x4)
                0x0000000020020000                __ram3_noinit__ = .
 *(.ram3)
 *(.ram3.*)
                0x0000000020020000                . = ALIGN (0x4)
                0x0000000020020000                __ram3_free__ = .

.ram4_init      0x0000000010000000        0x0 load address 0x0000000008011c4c
                0x0000000010000000                . = ALIGN (0x4)
                0x0000000008011c4c                __ram4_init_text__ = LOADADDR (.ram4_init)
                0x0000000010000000                __ram4_init__ = .
 *(.ram4_init)
 *(.ram4_init.*)
                0x0000000010000000                . = ALIGN (0x4)

.ram4           0x0000000010000000        0x0 load address 0x0000000008011c4c
                0x0000000010000000                . = ALIGN (0x4)
                0x0000000010000000                __ram4_clear__ = .
 *(.ram4_clear)
 *(.ram4_clear.*)
                0x0000000010000000                . = ALIGN (0x4)
                0x0000000010000000                __ram4_noinit__ = .
 *(.ram4)
 *(.ram4.*)
                0x0000000010000000                . = ALIGN (0x4)
                0x0000000010000000                __ram4_free__ = .

.ram5_init      0x0000000040024000        0x0 load address 0x0000000008011c4c
                0x0000000040024000                . = ALIGN (0x4)
                0x0000000008011c4c                __ram5_init_text__ = LOADADDR (.ram5_init)
                0x0000000040024000                __ram5_init__ = .
 *(.ram5_init)
 *(.ram5_init.*)
                0x0000000040024000                . = ALIGN (0x4)

.ram5           0x0000000040024000        0x0 load address 0x0000000008011c4c
                0x0000000040024000                . = ALIGN (0x4)
                0x0000000040024000                __ram5_clear__ = .
 *(.ram5_clear)
 *(.ram5_clear.*)
                0x0000000040024000                . = ALIGN (0x4)
                0x0000000040024000                __ram5_noinit__ = .
 *(.ram5)
 *(.ram5.*)
                0x0000000040024000                . = ALIGN (0x4)
                0x0000000040024000                __ram5_free__ = .

.ram6_init      0x0000000000000000        0x0 load address 0x0000000008011c4c
                0x0000000000000000                . = ALIGN (0x4)
                0x0000000008011c4c                __ram6_init_text__ = LOADADDR (.ram6_init)
                0x0000000000000000                __ram6_init__ = .
 *(.ram6_init)
 *(.ram6_init.*)
                0x0000000000000000                . = ALIGN (0x4)

.ram6           0x0000000000000000        0x0 load address 0x0000000008011c4c
                0x0000000000000000                . = ALIGN (0x4)
                0x0000000000000000                __ram6_clear__ = .
 *(.ram6_clear)
 *(.ram6_clear.*)
                0x0000000000000000                . = ALIGN (0x4)
                0x0000000000000000                __ram6_noinit__ = .
 *(.ram6)
 *(.ram6.*)
                0x0000000000000000                . = ALIGN (0x4)
                0x0000000000000000                __ram6_free__ = .

.ram7_init      0x0000000000000000        0x0 load address 0x0000000008011c4c
                0x0000000000000000                . = ALIGN (0x4)
                0x0000000008011c4c                __ram7_init_text__ = LOADADDR (.ram7_init)
                0x0000000000000000                __ram7_init__ = .
 *(.ram7_init)
 *(.ram7_init.*)
                0x0000000000000000                . = ALIGN (0x4)

.ram7           0x0000000000000000        0x0 load address 0x0000000008011c4c
                0x0000000000000000                . = ALIGN (0x4)
                0x0000000000000000                __ram7_clear__ = .
 *(.ram7_clear)
 *(.ram7_clear.*)
                0x0000000000000000                . = ALIGN (0x4)
                0x0000000000000000                __ram7_noinit__ = .
 *(.ram7)
 *(.ram7.*)
                0x0000000000000000                . = ALIGN (0x4)
                0x0000000000000000                __ram7_free__ = .

.heap           0x0000000020008d8c    0x27274
                0x0000000020008d90                . = ALIGN (0x8)
 *fill*         0x0000000020008d8c        0x4 
                0x0000000020008d90                __heap_base__ = .
                0x0000000020030000                . = (ORIGIN (HEAP_RAM) + LENGTH (HEAP_RAM))
 *fill*         0x0000000020008d90    0x27270 
                0x0000000020030000                __heap_end__ = .
                0x0000000000000400                __process_stack_size__ = 0x400
                0x0000000000000400                __main_stack_size__ = 0x400
LOAD /usr/lib/gcc/arm-none-eabi/4.9.3/../../../arm-none-eabi/lib/armv7e-m/fpu/libm.a
START GROUP
LOAD /usr/lib/gcc/arm-none-eabi/4.9.3/armv7e-m/fpu/libgcc.a
LOAD /usr/lib/gcc/arm-none-eabi/4.9.3/../../../arm-none-eabi/lib/armv7e-m/fpu/libg.a
LOAD /usr/lib/gcc/arm-none-eabi/4.9.3/../../../arm-none-eabi/lib/armv7e-m/fpu/libc.a
END GROUP
OUTPUT(build/ch.elf elf32-littlearm)

.ARM.attributes
                0x0000000000000000       0x35
 .ARM.attributes
                0x0000000000000000       0x25 build/obj/crt0_v7m.o
 .ARM.attributes
                0x0000000000000025       0x25 build/obj/chcoreasm_v7m.o
 .ARM.attributes
                0x000000000000004a       0x37 /tmp/cc5Oa950.ltrans0.ltrans.o
 .ARM.attributes
                0x0000000000000081       0x37 /tmp/cc5Oa950.ltrans1.ltrans.o
 .ARM.attributes
                0x00000000000000b8       0x37 /tmp/cc5Oa950.ltrans2.ltrans.o
 .ARM.attributes
                0x00000000000000ef       0x37 /tmp/cc5Oa950.ltrans3.ltrans.o
 .ARM.attributes
                0x0000000000000126       0x37 /tmp/cc5Oa950.ltrans4.ltrans.o
 .ARM.attributes
                0x000000000000015d       0x37 /tmp/cc5Oa950.ltrans5.ltrans.o
 .ARM.attributes
                0x0000000000000194       0x37 /tmp/cc5Oa950.ltrans6.ltrans.o
 .ARM.attributes
                0x00000000000001cb       0x37 /tmp/cc5Oa950.ltrans7.ltrans.o
 .ARM.attributes
                0x0000000000000202       0x37 /tmp/cc5Oa950.ltrans8.ltrans.o
 .ARM.attributes
                0x0000000000000239       0x37 /tmp/cc5Oa950.ltrans9.ltrans.o
 .ARM.attributes
                0x0000000000000270       0x37 /tmp/cc5Oa950.ltrans10.ltrans.o
 .ARM.attributes
                0x00000000000002a7       0x37 /tmp/cc5Oa950.ltrans11.ltrans.o
 .ARM.attributes
                0x00000000000002de       0x37 /tmp/cc5Oa950.ltrans12.ltrans.o
 .ARM.attributes
                0x0000000000000315       0x37 /tmp/cc5Oa950.ltrans13.ltrans.o
 .ARM.attributes
                0x000000000000034c       0x37 /tmp/cc5Oa950.ltrans14.ltrans.o
 .ARM.attributes
                0x0000000000000383       0x37 /tmp/cc5Oa950.ltrans15.ltrans.o
 .ARM.attributes
                0x00000000000003ba       0x37 /tmp/cc5Oa950.ltrans16.ltrans.o
 .ARM.attributes
                0x00000000000003f1       0x34 /usr/lib/gcc/arm-none-eabi/4.9.3/../../../arm-none-eabi/lib/armv7e-m/fpu/libm.a(lib_a-sf_fpclassify.o)
 .ARM.attributes
                0x0000000000000425       0x34 /usr/lib/gcc/arm-none-eabi/4.9.3/../../../arm-none-eabi/lib/armv7e-m/fpu/libm.a(lib_a-sf_cos.o)
 .ARM.attributes
                0x0000000000000459       0x34 /usr/lib/gcc/arm-none-eabi/4.9.3/../../../arm-none-eabi/lib/armv7e-m/fpu/libm.a(lib_a-sf_sin.o)
 .ARM.attributes
                0x000000000000048d       0x34 /usr/lib/gcc/arm-none-eabi/4.9.3/../../../arm-none-eabi/lib/armv7e-m/fpu/libm.a(lib_a-sf_tan.o)
 .ARM.attributes
                0x00000000000004c1       0x34 /usr/lib/gcc/arm-none-eabi/4.9.3/../../../arm-none-eabi/lib/armv7e-m/fpu/libm.a(lib_a-wf_asin.o)
 .ARM.attributes
                0x00000000000004f5       0x34 /usr/lib/gcc/arm-none-eabi/4.9.3/../../../arm-none-eabi/lib/armv7e-m/fpu/libm.a(lib_a-wf_atan2.o)
 .ARM.attributes
                0x0000000000000529       0x34 /usr/lib/gcc/arm-none-eabi/4.9.3/../../../arm-none-eabi/lib/armv7e-m/fpu/libm.a(lib_a-wf_sqrt.o)
 .ARM.attributes
                0x000000000000055d       0x34 /usr/lib/gcc/arm-none-eabi/4.9.3/../../../arm-none-eabi/lib/armv7e-m/fpu/libm.a(lib_a-ef_asin.o)
 .ARM.attributes
                0x0000000000000591       0x34 /usr/lib/gcc/arm-none-eabi/4.9.3/../../../arm-none-eabi/lib/armv7e-m/fpu/libm.a(lib_a-ef_atan2.o)
 .ARM.attributes
                0x00000000000005c5       0x34 /usr/lib/gcc/arm-none-eabi/4.9.3/../../../arm-none-eabi/lib/armv7e-m/fpu/libm.a(lib_a-ef_rem_pio2.o)
 .ARM.attributes
                0x00000000000005f9       0x34 /usr/lib/gcc/arm-none-eabi/4.9.3/../../../arm-none-eabi/lib/armv7e-m/fpu/libm.a(lib_a-ef_sqrt.o)
 .ARM.attributes
                0x000000000000062d       0x34 /usr/lib/gcc/arm-none-eabi/4.9.3/../../../arm-none-eabi/lib/armv7e-m/fpu/libm.a(lib_a-kf_cos.o)
 .ARM.attributes
                0x0000000000000661       0x34 /usr/lib/gcc/arm-none-eabi/4.9.3/../../../arm-none-eabi/lib/armv7e-m/fpu/libm.a(lib_a-kf_rem_pio2.o)
 .ARM.attributes
                0x0000000000000695       0x34 /usr/lib/gcc/arm-none-eabi/4.9.3/../../../arm-none-eabi/lib/armv7e-m/fpu/libm.a(lib_a-kf_sin.o)
 .ARM.attributes
                0x00000000000006c9       0x34 /usr/lib/gcc/arm-none-eabi/4.9.3/../../../arm-none-eabi/lib/armv7e-m/fpu/libm.a(lib_a-kf_tan.o)
 .ARM.attributes
                0x00000000000006fd       0x34 /usr/lib/gcc/arm-none-eabi/4.9.3/../../../arm-none-eabi/lib/armv7e-m/fpu/libm.a(lib_a-s_lib_ver.o)
 .ARM.attributes
                0x0000000000000731       0x34 /usr/lib/gcc/arm-none-eabi/4.9.3/../../../arm-none-eabi/lib/armv7e-m/fpu/libm.a(lib_a-s_matherr.o)
 .ARM.attributes
                0x0000000000000765       0x34 /usr/lib/gcc/arm-none-eabi/4.9.3/../../../arm-none-eabi/lib/armv7e-m/fpu/libm.a(lib_a-s_nan.o)
 .ARM.attributes
                0x0000000000000799       0x34 /usr/lib/gcc/arm-none-eabi/4.9.3/../../../arm-none-eabi/lib/armv7e-m/fpu/libm.a(lib_a-sf_atan.o)
 .ARM.attributes
                0x00000000000007cd       0x34 /usr/lib/gcc/arm-none-eabi/4.9.3/../../../arm-none-eabi/lib/armv7e-m/fpu/libm.a(lib_a-sf_fabs.o)
 .ARM.attributes
                0x0000000000000801       0x34 /usr/lib/gcc/arm-none-eabi/4.9.3/../../../arm-none-eabi/lib/armv7e-m/fpu/libm.a(lib_a-sf_floor.o)
 .ARM.attributes
                0x0000000000000835       0x34 /usr/lib/gcc/arm-none-eabi/4.9.3/../../../arm-none-eabi/lib/armv7e-m/fpu/libm.a(lib_a-sf_scalbn.o)
 .ARM.attributes
                0x0000000000000869       0x34 /usr/lib/gcc/arm-none-eabi/4.9.3/../../../arm-none-eabi/lib/armv7e-m/fpu/libm.a(lib_a-sf_copysign.o)
 .ARM.attributes
                0x000000000000089d       0x22 /usr/lib/gcc/arm-none-eabi/4.9.3/armv7e-m/fpu/libgcc.a(_arm_addsubdf3.o)
 .ARM.attributes
                0x00000000000008bf       0x22 /usr/lib/gcc/arm-none-eabi/4.9.3/armv7e-m/fpu/libgcc.a(_arm_muldivdf3.o)
 .ARM.attributes
                0x00000000000008e1       0x22 /usr/lib/gcc/arm-none-eabi/4.9.3/armv7e-m/fpu/libgcc.a(_arm_fixdfsi.o)
 .ARM.attributes
                0x0000000000000903       0x22 /usr/lib/gcc/arm-none-eabi/4.9.3/armv7e-m/fpu/libgcc.a(_arm_truncdfsf2.o)
 .ARM.attributes
                0x0000000000000925       0x34 /usr/lib/gcc/arm-none-eabi/4.9.3/../../../arm-none-eabi/lib/armv7e-m/fpu/libg.a(lib_a-errno.o)
 .ARM.attributes
                0x0000000000000959       0x34 /usr/lib/gcc/arm-none-eabi/4.9.3/../../../arm-none-eabi/lib/armv7e-m/fpu/libg.a(lib_a-impure.o)
 .ARM.attributes
                0x000000000000098d       0x20 /usr/lib/gcc/arm-none-eabi/4.9.3/../../../arm-none-eabi/lib/armv7e-m/fpu/libg.a(lib_a-memcpy.o)
 .ARM.attributes
                0x00000000000009ad       0x34 /usr/lib/gcc/arm-none-eabi/4.9.3/../../../arm-none-eabi/lib/armv7e-m/fpu/libg.a(lib_a-memset.o)
 .ARM.attributes
                0x00000000000009e1       0x20 /usr/lib/gcc/arm-none-eabi/4.9.3/../../../arm-none-eabi/lib/armv7e-m/fpu/libg.a(lib_a-strcmp.o)
 .ARM.attributes
                0x0000000000000a01       0x34 /usr/lib/gcc/arm-none-eabi/4.9.3/../../../arm-none-eabi/lib/armv7e-m/fpu/libg.a(lib_a-strlen.o)
 .ARM.attributes
                0x0000000000000a35       0x34 /usr/lib/gcc/arm-none-eabi/4.9.3/../../../arm-none-eabi/lib/armv7e-m/fpu/libg.a(lib_a-strpbrk.o)
 .ARM.attributes
                0x0000000000000a69       0x34 /usr/lib/gcc/arm-none-eabi/4.9.3/../../../arm-none-eabi/lib/armv7e-m/fpu/libg.a(lib_a-strspn.o)

.comment        0x0000000000000000       0x70
 .comment       0x0000000000000000       0x38 /tmp/cc5Oa950.ltrans0.ltrans.o
                                         0x39 (size before relaxing)
 .comment       0x0000000000000038       0x39 /tmp/cc5Oa950.ltrans1.ltrans.o
 .comment       0x0000000000000038       0x39 /tmp/cc5Oa950.ltrans2.ltrans.o
 .comment       0x0000000000000038       0x39 /tmp/cc5Oa950.ltrans3.ltrans.o
 .comment       0x0000000000000038       0x39 /tmp/cc5Oa950.ltrans4.ltrans.o
 .comment       0x0000000000000038       0x39 /tmp/cc5Oa950.ltrans5.ltrans.o
 .comment       0x0000000000000038       0x39 /tmp/cc5Oa950.ltrans6.ltrans.o
 .comment       0x0000000000000038       0x39 /tmp/cc5Oa950.ltrans7.ltrans.o
 .comment       0x0000000000000038       0x39 /tmp/cc5Oa950.ltrans8.ltrans.o
 .comment       0x0000000000000038       0x39 /tmp/cc5Oa950.ltrans9.ltrans.o
 .comment       0x0000000000000038       0x39 /tmp/cc5Oa950.ltrans10.ltrans.o
 .comment       0x0000000000000038       0x39 /tmp/cc5Oa950.ltrans11.ltrans.o
 .comment       0x0000000000000038       0x39 /tmp/cc5Oa950.ltrans12.ltrans.o
 .comment       0x0000000000000038       0x39 /tmp/cc5Oa950.ltrans13.ltrans.o
 .comment       0x0000000000000038       0x39 /tmp/cc5Oa950.ltrans14.ltrans.o
 .comment       0x0000000000000038       0x39 /tmp/cc5Oa950.ltrans15.ltrans.o
 .comment       0x0000000000000038       0x39 /tmp/cc5Oa950.ltrans16.ltrans.o
 .comment       0x0000000000000038       0x38 /usr/lib/gcc/arm-none-eabi/4.9.3/../../../arm-none-eabi/lib/armv7e-m/fpu/libm.a(lib_a-sf_fpclassify.o)
                                         0x39 (size before relaxing)
 .comment       0x0000000000000070       0x39 /usr/lib/gcc/arm-none-eabi/4.9.3/../../../arm-none-eabi/lib/armv7e-m/fpu/libm.a(lib_a-sf_cos.o)
 .comment       0x0000000000000070       0x39 /usr/lib/gcc/arm-none-eabi/4.9.3/../../../arm-none-eabi/lib/armv7e-m/fpu/libm.a(lib_a-sf_sin.o)
 .comment       0x0000000000000070       0x39 /usr/lib/gcc/arm-none-eabi/4.9.3/../../../arm-none-eabi/lib/armv7e-m/fpu/libm.a(lib_a-sf_tan.o)
 .comment       0x0000000000000070       0x39 /usr/lib/gcc/arm-none-eabi/4.9.3/../../../arm-none-eabi/lib/armv7e-m/fpu/libm.a(lib_a-wf_asin.o)
 .comment       0x0000000000000070       0x39 /usr/lib/gcc/arm-none-eabi/4.9.3/../../../arm-none-eabi/lib/armv7e-m/fpu/libm.a(lib_a-wf_atan2.o)
 .comment       0x0000000000000070       0x39 /usr/lib/gcc/arm-none-eabi/4.9.3/../../../arm-none-eabi/lib/armv7e-m/fpu/libm.a(lib_a-wf_sqrt.o)
 .comment       0x0000000000000070       0x39 /usr/lib/gcc/arm-none-eabi/4.9.3/../../../arm-none-eabi/lib/armv7e-m/fpu/libm.a(lib_a-ef_asin.o)
 .comment       0x0000000000000070       0x39 /usr/lib/gcc/arm-none-eabi/4.9.3/../../../arm-none-eabi/lib/armv7e-m/fpu/libm.a(lib_a-ef_atan2.o)
 .comment       0x0000000000000070       0x39 /usr/lib/gcc/arm-none-eabi/4.9.3/../../../arm-none-eabi/lib/armv7e-m/fpu/libm.a(lib_a-ef_rem_pio2.o)
 .comment       0x0000000000000070       0x39 /usr/lib/gcc/arm-none-eabi/4.9.3/../../../arm-none-eabi/lib/armv7e-m/fpu/libm.a(lib_a-ef_sqrt.o)
 .comment       0x0000000000000070       0x39 /usr/lib/gcc/arm-none-eabi/4.9.3/../../../arm-none-eabi/lib/armv7e-m/fpu/libm.a(lib_a-kf_cos.o)
 .comment       0x0000000000000070       0x39 /usr/lib/gcc/arm-none-eabi/4.9.3/../../../arm-none-eabi/lib/armv7e-m/fpu/libm.a(lib_a-kf_rem_pio2.o)
 .comment       0x0000000000000070       0x39 /usr/lib/gcc/arm-none-eabi/4.9.3/../../../arm-none-eabi/lib/armv7e-m/fpu/libm.a(lib_a-kf_sin.o)
 .comment       0x0000000000000070       0x39 /usr/lib/gcc/arm-none-eabi/4.9.3/../../../arm-none-eabi/lib/armv7e-m/fpu/libm.a(lib_a-kf_tan.o)
 .comment       0x0000000000000070       0x39 /usr/lib/gcc/arm-none-eabi/4.9.3/../../../arm-none-eabi/lib/armv7e-m/fpu/libm.a(lib_a-s_lib_ver.o)
 .comment       0x0000000000000070       0x39 /usr/lib/gcc/arm-none-eabi/4.9.3/../../../arm-none-eabi/lib/armv7e-m/fpu/libm.a(lib_a-s_matherr.o)
 .comment       0x0000000000000070       0x39 /usr/lib/gcc/arm-none-eabi/4.9.3/../../../arm-none-eabi/lib/armv7e-m/fpu/libm.a(lib_a-s_nan.o)
 .comment       0x0000000000000070       0x39 /usr/lib/gcc/arm-none-eabi/4.9.3/../../../arm-none-eabi/lib/armv7e-m/fpu/libm.a(lib_a-sf_atan.o)
 .comment       0x0000000000000070       0x39 /usr/lib/gcc/arm-none-eabi/4.9.3/../../../arm-none-eabi/lib/armv7e-m/fpu/libm.a(lib_a-sf_fabs.o)
 .comment       0x0000000000000070       0x39 /usr/lib/gcc/arm-none-eabi/4.9.3/../../../arm-none-eabi/lib/armv7e-m/fpu/libm.a(lib_a-sf_floor.o)
 .comment       0x0000000000000070       0x39 /usr/lib/gcc/arm-none-eabi/4.9.3/../../../arm-none-eabi/lib/armv7e-m/fpu/libm.a(lib_a-sf_scalbn.o)
 .comment       0x0000000000000070       0x39 /usr/lib/gcc/arm-none-eabi/4.9.3/../../../arm-none-eabi/lib/armv7e-m/fpu/libm.a(lib_a-sf_copysign.o)
 .comment       0x0000000000000070       0x39 /usr/lib/gcc/arm-none-eabi/4.9.3/../../../arm-none-eabi/lib/armv7e-m/fpu/libg.a(lib_a-errno.o)
 .comment       0x0000000000000070       0x39 /usr/lib/gcc/arm-none-eabi/4.9.3/../../../arm-none-eabi/lib/armv7e-m/fpu/libg.a(lib_a-impure.o)
 .comment       0x0000000000000070       0x39 /usr/lib/gcc/arm-none-eabi/4.9.3/../../../arm-none-eabi/lib/armv7e-m/fpu/libg.a(lib_a-memset.o)
 .comment       0x0000000000000070       0x39 /usr/lib/gcc/arm-none-eabi/4.9.3/../../../arm-none-eabi/lib/armv7e-m/fpu/libg.a(lib_a-strlen.o)
 .comment       0x0000000000000070       0x39 /usr/lib/gcc/arm-none-eabi/4.9.3/../../../arm-none-eabi/lib/armv7e-m/fpu/libg.a(lib_a-strpbrk.o)
 .comment       0x0000000000000070       0x39 /usr/lib/gcc/arm-none-eabi/4.9.3/../../../arm-none-eabi/lib/armv7e-m/fpu/libg.a(lib_a-strspn.o)

.debug_info     0x0000000000000000    0x3c863
 .debug_info    0x0000000000000000     0x6dfc /tmp/cc5Oa950.ltrans0.ltrans.o
 .debug_info    0x0000000000006dfc     0x390f /tmp/cc5Oa950.ltrans1.ltrans.o
 .debug_info    0x000000000000a70b     0x2b8e /tmp/cc5Oa950.ltrans2.ltrans.o
 .debug_info    0x000000000000d299     0x2d79 /tmp/cc5Oa950.ltrans3.ltrans.o
 .debug_info    0x0000000000010012     0x3e7f /tmp/cc5Oa950.ltrans4.ltrans.o
 .debug_info    0x0000000000013e91     0x2ed0 /tmp/cc5Oa950.ltrans5.ltrans.o
 .debug_info    0x0000000000016d61     0x3929 /tmp/cc5Oa950.ltrans6.ltrans.o
 .debug_info    0x000000000001a68a     0x334d /tmp/cc5Oa950.ltrans7.ltrans.o
 .debug_info    0x000000000001d9d7     0x3127 /tmp/cc5Oa950.ltrans8.ltrans.o
 .debug_info    0x0000000000020afe     0x23f3 /tmp/cc5Oa950.ltrans9.ltrans.o
 .debug_info    0x0000000000022ef1     0x49f1 /tmp/cc5Oa950.ltrans10.ltrans.o
 .debug_info    0x00000000000278e2     0x240e /tmp/cc5Oa950.ltrans11.ltrans.o
 .debug_info    0x0000000000029cf0     0x34b8 /tmp/cc5Oa950.ltrans12.ltrans.o
 .debug_info    0x000000000002d1a8     0x2c7f /tmp/cc5Oa950.ltrans13.ltrans.o
 .debug_info    0x000000000002fe27     0x3407 /tmp/cc5Oa950.ltrans14.ltrans.o
 .debug_info    0x000000000003322e     0x24d5 /tmp/cc5Oa950.ltrans15.ltrans.o
 .debug_info    0x0000000000035703     0x2caa /tmp/cc5Oa950.ltrans16.ltrans.o
 .debug_info    0x00000000000383ad       0xc8 /usr/lib/gcc/arm-none-eabi/4.9.3/../../../arm-none-eabi/lib/armv7e-m/fpu/libm.a(lib_a-sf_fpclassify.o)
 .debug_info    0x0000000000038475      0x223 /usr/lib/gcc/arm-none-eabi/4.9.3/../../../arm-none-eabi/lib/armv7e-m/fpu/libm.a(lib_a-sf_cos.o)
 .debug_info    0x0000000000038698      0x219 /usr/lib/gcc/arm-none-eabi/4.9.3/../../../arm-none-eabi/lib/armv7e-m/fpu/libm.a(lib_a-sf_sin.o)
 .debug_info    0x00000000000388b1      0x1d0 /usr/lib/gcc/arm-none-eabi/4.9.3/../../../arm-none-eabi/lib/armv7e-m/fpu/libm.a(lib_a-sf_tan.o)
 .debug_info    0x0000000000038a81      0x273 /usr/lib/gcc/arm-none-eabi/4.9.3/../../../arm-none-eabi/lib/armv7e-m/fpu/libm.a(lib_a-wf_asin.o)
 .debug_info    0x0000000000038cf4       0xf8 /usr/lib/gcc/arm-none-eabi/4.9.3/../../../arm-none-eabi/lib/armv7e-m/fpu/libm.a(lib_a-wf_atan2.o)
 .debug_info    0x0000000000038dec      0x20f /usr/lib/gcc/arm-none-eabi/4.9.3/../../../arm-none-eabi/lib/armv7e-m/fpu/libm.a(lib_a-wf_sqrt.o)
 .debug_info    0x0000000000038ffb      0x2f6 /usr/lib/gcc/arm-none-eabi/4.9.3/../../../arm-none-eabi/lib/armv7e-m/fpu/libm.a(lib_a-ef_asin.o)
 .debug_info    0x00000000000392f1      0x291 /usr/lib/gcc/arm-none-eabi/4.9.3/../../../arm-none-eabi/lib/armv7e-m/fpu/libm.a(lib_a-ef_atan2.o)
 .debug_info    0x0000000000039582      0x38b /usr/lib/gcc/arm-none-eabi/4.9.3/../../../arm-none-eabi/lib/armv7e-m/fpu/libm.a(lib_a-ef_rem_pio2.o)
 .debug_info    0x000000000003990d      0x1c8 /usr/lib/gcc/arm-none-eabi/4.9.3/../../../arm-none-eabi/lib/armv7e-m/fpu/libm.a(lib_a-ef_sqrt.o)
 .debug_info    0x0000000000039ad5      0x1fd /usr/lib/gcc/arm-none-eabi/4.9.3/../../../arm-none-eabi/lib/armv7e-m/fpu/libm.a(lib_a-kf_cos.o)
 .debug_info    0x0000000000039cd2      0x388 /usr/lib/gcc/arm-none-eabi/4.9.3/../../../arm-none-eabi/lib/armv7e-m/fpu/libm.a(lib_a-kf_rem_pio2.o)
 .debug_info    0x000000000003a05a      0x1d0 /usr/lib/gcc/arm-none-eabi/4.9.3/../../../arm-none-eabi/lib/armv7e-m/fpu/libm.a(lib_a-kf_sin.o)
 .debug_info    0x000000000003a22a      0x295 /usr/lib/gcc/arm-none-eabi/4.9.3/../../../arm-none-eabi/lib/armv7e-m/fpu/libm.a(lib_a-kf_tan.o)
 .debug_info    0x000000000003a4bf       0xbe /usr/lib/gcc/arm-none-eabi/4.9.3/../../../arm-none-eabi/lib/armv7e-m/fpu/libm.a(lib_a-s_lib_ver.o)
 .debug_info    0x000000000003a57d      0x129 /usr/lib/gcc/arm-none-eabi/4.9.3/../../../arm-none-eabi/lib/armv7e-m/fpu/libm.a(lib_a-s_matherr.o)
 .debug_info    0x000000000003a6a6       0xd0 /usr/lib/gcc/arm-none-eabi/4.9.3/../../../arm-none-eabi/lib/armv7e-m/fpu/libm.a(lib_a-s_nan.o)
 .debug_info    0x000000000003a776      0x23c /usr/lib/gcc/arm-none-eabi/4.9.3/../../../arm-none-eabi/lib/armv7e-m/fpu/libm.a(lib_a-sf_atan.o)
 .debug_info    0x000000000003a9b2       0xcc /usr/lib/gcc/arm-none-eabi/4.9.3/../../../arm-none-eabi/lib/armv7e-m/fpu/libm.a(lib_a-sf_fabs.o)
 .debug_info    0x000000000003aa7e      0x15c /usr/lib/gcc/arm-none-eabi/4.9.3/../../../arm-none-eabi/lib/armv7e-m/fpu/libm.a(lib_a-sf_floor.o)
 .debug_info    0x000000000003abda      0x221 /usr/lib/gcc/arm-none-eabi/4.9.3/../../../arm-none-eabi/lib/armv7e-m/fpu/libm.a(lib_a-sf_scalbn.o)
 .debug_info    0x000000000003adfb      0x12c /usr/lib/gcc/arm-none-eabi/4.9.3/../../../arm-none-eabi/lib/armv7e-m/fpu/libm.a(lib_a-sf_copysign.o)
 .debug_info    0x000000000003af27       0xc2 /usr/lib/gcc/arm-none-eabi/4.9.3/armv7e-m/fpu/libgcc.a(_arm_addsubdf3.o)
 .debug_info    0x000000000003afe9       0xc2 /usr/lib/gcc/arm-none-eabi/4.9.3/armv7e-m/fpu/libgcc.a(_arm_muldivdf3.o)
 .debug_info    0x000000000003b0ab       0xc2 /usr/lib/gcc/arm-none-eabi/4.9.3/armv7e-m/fpu/libgcc.a(_arm_fixdfsi.o)
 .debug_info    0x000000000003b16d       0xc2 /usr/lib/gcc/arm-none-eabi/4.9.3/armv7e-m/fpu/libgcc.a(_arm_truncdfsf2.o)
 .debug_info    0x000000000003b22f      0x889 /usr/lib/gcc/arm-none-eabi/4.9.3/../../../arm-none-eabi/lib/armv7e-m/fpu/libg.a(lib_a-errno.o)
 .debug_info    0x000000000003bab8      0x894 /usr/lib/gcc/arm-none-eabi/4.9.3/../../../arm-none-eabi/lib/armv7e-m/fpu/libg.a(lib_a-impure.o)
 .debug_info    0x000000000003c34c       0xd5 /usr/lib/gcc/arm-none-eabi/4.9.3/../../../arm-none-eabi/lib/armv7e-m/fpu/libg.a(lib_a-memcpy.o)
 .debug_info    0x000000000003c421      0x117 /usr/lib/gcc/arm-none-eabi/4.9.3/../../../arm-none-eabi/lib/armv7e-m/fpu/libg.a(lib_a-memset.o)
 .debug_info    0x000000000003c538       0xd4 /usr/lib/gcc/arm-none-eabi/4.9.3/../../../arm-none-eabi/lib/armv7e-m/fpu/libg.a(lib_a-strcmp.o)
 .debug_info    0x000000000003c60c       0xb5 /usr/lib/gcc/arm-none-eabi/4.9.3/../../../arm-none-eabi/lib/armv7e-m/fpu/libg.a(lib_a-strlen.o)
 .debug_info    0x000000000003c6c1       0xc8 /usr/lib/gcc/arm-none-eabi/4.9.3/../../../arm-none-eabi/lib/armv7e-m/fpu/libg.a(lib_a-strpbrk.o)
 .debug_info    0x000000000003c789       0xda /usr/lib/gcc/arm-none-eabi/4.9.3/../../../arm-none-eabi/lib/armv7e-m/fpu/libg.a(lib_a-strspn.o)

.debug_abbrev   0x0000000000000000     0x7cfa
 .debug_abbrev  0x0000000000000000      0x66f /tmp/cc5Oa950.ltrans0.ltrans.o
 .debug_abbrev  0x000000000000066f      0x61a /tmp/cc5Oa950.ltrans1.ltrans.o
 .debug_abbrev  0x0000000000000c89      0x626 /tmp/cc5Oa950.ltrans2.ltrans.o
 .debug_abbrev  0x00000000000012af      0x5ec /tmp/cc5Oa950.ltrans3.ltrans.o
 .debug_abbrev  0x000000000000189b      0x5eb /tmp/cc5Oa950.ltrans4.ltrans.o
 .debug_abbrev  0x0000000000001e86      0x598 /tmp/cc5Oa950.ltrans5.ltrans.o
 .debug_abbrev  0x000000000000241e      0x61f /tmp/cc5Oa950.ltrans6.ltrans.o
 .debug_abbrev  0x0000000000002a3d      0x538 /tmp/cc5Oa950.ltrans7.ltrans.o
 .debug_abbrev  0x0000000000002f75      0x587 /tmp/cc5Oa950.ltrans8.ltrans.o
 .debug_abbrev  0x00000000000034fc      0x4b8 /tmp/cc5Oa950.ltrans9.ltrans.o
 .debug_abbrev  0x00000000000039b4      0x77e /tmp/cc5Oa950.ltrans10.ltrans.o
 .debug_abbrev  0x0000000000004132      0x4f6 /tmp/cc5Oa950.ltrans11.ltrans.o
 .debug_abbrev  0x0000000000004628      0x678 /tmp/cc5Oa950.ltrans12.ltrans.o
 .debug_abbrev  0x0000000000004ca0      0x56a /tmp/cc5Oa950.ltrans13.ltrans.o
 .debug_abbrev  0x000000000000520a      0x59d /tmp/cc5Oa950.ltrans14.ltrans.o
 .debug_abbrev  0x00000000000057a7      0x4a4 /tmp/cc5Oa950.ltrans15.ltrans.o
 .debug_abbrev  0x0000000000005c4b      0x522 /tmp/cc5Oa950.ltrans16.ltrans.o
 .debug_abbrev  0x000000000000616d       0x6f /usr/lib/gcc/arm-none-eabi/4.9.3/../../../arm-none-eabi/lib/armv7e-m/fpu/libm.a(lib_a-sf_fpclassify.o)
 .debug_abbrev  0x00000000000061dc      0x145 /usr/lib/gcc/arm-none-eabi/4.9.3/../../../arm-none-eabi/lib/armv7e-m/fpu/libm.a(lib_a-sf_cos.o)
 .debug_abbrev  0x0000000000006321      0x149 /usr/lib/gcc/arm-none-eabi/4.9.3/../../../arm-none-eabi/lib/armv7e-m/fpu/libm.a(lib_a-sf_sin.o)
 .debug_abbrev  0x000000000000646a      0x149 /usr/lib/gcc/arm-none-eabi/4.9.3/../../../arm-none-eabi/lib/armv7e-m/fpu/libm.a(lib_a-sf_tan.o)
 .debug_abbrev  0x00000000000065b3      0x156 /usr/lib/gcc/arm-none-eabi/4.9.3/../../../arm-none-eabi/lib/armv7e-m/fpu/libm.a(lib_a-wf_asin.o)
 .debug_abbrev  0x0000000000006709       0x89 /usr/lib/gcc/arm-none-eabi/4.9.3/../../../arm-none-eabi/lib/armv7e-m/fpu/libm.a(lib_a-wf_atan2.o)
 .debug_abbrev  0x0000000000006792      0x13a /usr/lib/gcc/arm-none-eabi/4.9.3/../../../arm-none-eabi/lib/armv7e-m/fpu/libm.a(lib_a-wf_sqrt.o)
 .debug_abbrev  0x00000000000068cc      0x13e /usr/lib/gcc/arm-none-eabi/4.9.3/../../../arm-none-eabi/lib/armv7e-m/fpu/libm.a(lib_a-ef_asin.o)
 .debug_abbrev  0x0000000000006a0a      0x141 /usr/lib/gcc/arm-none-eabi/4.9.3/../../../arm-none-eabi/lib/armv7e-m/fpu/libm.a(lib_a-ef_atan2.o)
 .debug_abbrev  0x0000000000006b4b      0x15d /usr/lib/gcc/arm-none-eabi/4.9.3/../../../arm-none-eabi/lib/armv7e-m/fpu/libm.a(lib_a-ef_rem_pio2.o)
 .debug_abbrev  0x0000000000006ca8       0xed /usr/lib/gcc/arm-none-eabi/4.9.3/../../../arm-none-eabi/lib/armv7e-m/fpu/libm.a(lib_a-ef_sqrt.o)
 .debug_abbrev  0x0000000000006d95       0xd1 /usr/lib/gcc/arm-none-eabi/4.9.3/../../../arm-none-eabi/lib/armv7e-m/fpu/libm.a(lib_a-kf_cos.o)
 .debug_abbrev  0x0000000000006e66      0x14b /usr/lib/gcc/arm-none-eabi/4.9.3/../../../arm-none-eabi/lib/armv7e-m/fpu/libm.a(lib_a-kf_rem_pio2.o)
 .debug_abbrev  0x0000000000006fb1       0xe4 /usr/lib/gcc/arm-none-eabi/4.9.3/../../../arm-none-eabi/lib/armv7e-m/fpu/libm.a(lib_a-kf_sin.o)
 .debug_abbrev  0x0000000000007095      0x11e /usr/lib/gcc/arm-none-eabi/4.9.3/../../../arm-none-eabi/lib/armv7e-m/fpu/libm.a(lib_a-kf_tan.o)
 .debug_abbrev  0x00000000000071b3       0x4f /usr/lib/gcc/arm-none-eabi/4.9.3/../../../arm-none-eabi/lib/armv7e-m/fpu/libm.a(lib_a-s_lib_ver.o)
 .debug_abbrev  0x0000000000007202       0x9a /usr/lib/gcc/arm-none-eabi/4.9.3/../../../arm-none-eabi/lib/armv7e-m/fpu/libm.a(lib_a-s_matherr.o)
 .debug_abbrev  0x000000000000729c       0x72 /usr/lib/gcc/arm-none-eabi/4.9.3/../../../arm-none-eabi/lib/armv7e-m/fpu/libm.a(lib_a-s_nan.o)
 .debug_abbrev  0x000000000000730e      0x12c /usr/lib/gcc/arm-none-eabi/4.9.3/../../../arm-none-eabi/lib/armv7e-m/fpu/libm.a(lib_a-sf_atan.o)
 .debug_abbrev  0x000000000000743a       0x6f /usr/lib/gcc/arm-none-eabi/4.9.3/../../../arm-none-eabi/lib/armv7e-m/fpu/libm.a(lib_a-sf_fabs.o)
 .debug_abbrev  0x00000000000074a9       0xc4 /usr/lib/gcc/arm-none-eabi/4.9.3/../../../arm-none-eabi/lib/armv7e-m/fpu/libm.a(lib_a-sf_floor.o)
 .debug_abbrev  0x000000000000756d      0x11c /usr/lib/gcc/arm-none-eabi/4.9.3/../../../arm-none-eabi/lib/armv7e-m/fpu/libm.a(lib_a-sf_scalbn.o)
 .debug_abbrev  0x0000000000007689       0xcc /usr/lib/gcc/arm-none-eabi/4.9.3/../../../arm-none-eabi/lib/armv7e-m/fpu/libm.a(lib_a-sf_copysign.o)
 .debug_abbrev  0x0000000000007755       0x14 /usr/lib/gcc/arm-none-eabi/4.9.3/armv7e-m/fpu/libgcc.a(_arm_addsubdf3.o)
 .debug_abbrev  0x0000000000007769       0x14 /usr/lib/gcc/arm-none-eabi/4.9.3/armv7e-m/fpu/libgcc.a(_arm_muldivdf3.o)
 .debug_abbrev  0x000000000000777d       0x14 /usr/lib/gcc/arm-none-eabi/4.9.3/armv7e-m/fpu/libgcc.a(_arm_fixdfsi.o)
 .debug_abbrev  0x0000000000007791       0x14 /usr/lib/gcc/arm-none-eabi/4.9.3/armv7e-m/fpu/libgcc.a(_arm_truncdfsf2.o)
 .debug_abbrev  0x00000000000077a5      0x18f /usr/lib/gcc/arm-none-eabi/4.9.3/../../../arm-none-eabi/lib/armv7e-m/fpu/libg.a(lib_a-errno.o)
 .debug_abbrev  0x0000000000007934      0x180 /usr/lib/gcc/arm-none-eabi/4.9.3/../../../arm-none-eabi/lib/armv7e-m/fpu/libg.a(lib_a-impure.o)
 .debug_abbrev  0x0000000000007ab4       0x14 /usr/lib/gcc/arm-none-eabi/4.9.3/../../../arm-none-eabi/lib/armv7e-m/fpu/libg.a(lib_a-memcpy.o)
 .debug_abbrev  0x0000000000007ac8       0x9f /usr/lib/gcc/arm-none-eabi/4.9.3/../../../arm-none-eabi/lib/armv7e-m/fpu/libg.a(lib_a-memset.o)
 .debug_abbrev  0x0000000000007b67       0x14 /usr/lib/gcc/arm-none-eabi/4.9.3/../../../arm-none-eabi/lib/armv7e-m/fpu/libg.a(lib_a-strcmp.o)
 .debug_abbrev  0x0000000000007b7b       0x70 /usr/lib/gcc/arm-none-eabi/4.9.3/../../../arm-none-eabi/lib/armv7e-m/fpu/libg.a(lib_a-strlen.o)
 .debug_abbrev  0x0000000000007beb       0x81 /usr/lib/gcc/arm-none-eabi/4.9.3/../../../arm-none-eabi/lib/armv7e-m/fpu/libg.a(lib_a-strpbrk.o)
 .debug_abbrev  0x0000000000007c6c       0x8e /usr/lib/gcc/arm-none-eabi/4.9.3/../../../arm-none-eabi/lib/armv7e-m/fpu/libg.a(lib_a-strspn.o)

.debug_loc      0x0000000000000000    0x1668b
 .debug_loc     0x0000000000000000     0x1d4e /tmp/cc5Oa950.ltrans0.ltrans.o
 .debug_loc     0x0000000000001d4e     0x12fd /tmp/cc5Oa950.ltrans1.ltrans.o
 .debug_loc     0x000000000000304b     0x10de /tmp/cc5Oa950.ltrans2.ltrans.o
 .debug_loc     0x0000000000004129     0x1302 /tmp/cc5Oa950.ltrans3.ltrans.o
 .debug_loc     0x000000000000542b     0x1377 /tmp/cc5Oa950.ltrans4.ltrans.o
 .debug_loc     0x00000000000067a2      0xf11 /tmp/cc5Oa950.ltrans5.ltrans.o
 .debug_loc     0x00000000000076b3      0xd98 /tmp/cc5Oa950.ltrans6.ltrans.o
 .debug_loc     0x000000000000844b      0xe5d /tmp/cc5Oa950.ltrans7.ltrans.o
 .debug_loc     0x00000000000092a8      0xfa8 /tmp/cc5Oa950.ltrans8.ltrans.o
 .debug_loc     0x000000000000a250     0x1c8c /tmp/cc5Oa950.ltrans9.ltrans.o
 .debug_loc     0x000000000000bedc      0xe37 /tmp/cc5Oa950.ltrans10.ltrans.o
 .debug_loc     0x000000000000cd13     0x10ae /tmp/cc5Oa950.ltrans11.ltrans.o
 .debug_loc     0x000000000000ddc1     0x1a4a /tmp/cc5Oa950.ltrans12.ltrans.o
 .debug_loc     0x000000000000f80b     0x14b1 /tmp/cc5Oa950.ltrans13.ltrans.o
 .debug_loc     0x0000000000010cbc     0x10ad /tmp/cc5Oa950.ltrans14.ltrans.o
 .debug_loc     0x0000000000011d69      0x6fa /tmp/cc5Oa950.ltrans15.ltrans.o
 .debug_loc     0x0000000000012463     0x1027 /tmp/cc5Oa950.ltrans16.ltrans.o
 .debug_loc     0x000000000001348a      0x100 /usr/lib/gcc/arm-none-eabi/4.9.3/../../../arm-none-eabi/lib/armv7e-m/fpu/libm.a(lib_a-sf_cos.o)
 .debug_loc     0x000000000001358a      0x100 /usr/lib/gcc/arm-none-eabi/4.9.3/../../../arm-none-eabi/lib/armv7e-m/fpu/libm.a(lib_a-sf_sin.o)
 .debug_loc     0x000000000001368a       0xf5 /usr/lib/gcc/arm-none-eabi/4.9.3/../../../arm-none-eabi/lib/armv7e-m/fpu/libm.a(lib_a-sf_tan.o)
 .debug_loc     0x000000000001377f       0x64 /usr/lib/gcc/arm-none-eabi/4.9.3/../../../arm-none-eabi/lib/armv7e-m/fpu/libm.a(lib_a-wf_asin.o)
 .debug_loc     0x00000000000137e3       0x48 /usr/lib/gcc/arm-none-eabi/4.9.3/../../../arm-none-eabi/lib/armv7e-m/fpu/libm.a(lib_a-wf_atan2.o)
 .debug_loc     0x000000000001382b       0x64 /usr/lib/gcc/arm-none-eabi/4.9.3/../../../arm-none-eabi/lib/armv7e-m/fpu/libm.a(lib_a-wf_sqrt.o)
 .debug_loc     0x000000000001388f      0x2ac /usr/lib/gcc/arm-none-eabi/4.9.3/../../../arm-none-eabi/lib/armv7e-m/fpu/libm.a(lib_a-ef_asin.o)
 .debug_loc     0x0000000000013b3b      0x708 /usr/lib/gcc/arm-none-eabi/4.9.3/../../../arm-none-eabi/lib/armv7e-m/fpu/libm.a(lib_a-ef_atan2.o)
 .debug_loc     0x0000000000014243      0x5e0 /usr/lib/gcc/arm-none-eabi/4.9.3/../../../arm-none-eabi/lib/armv7e-m/fpu/libm.a(lib_a-ef_rem_pio2.o)
 .debug_loc     0x0000000000014823      0x2af /usr/lib/gcc/arm-none-eabi/4.9.3/../../../arm-none-eabi/lib/armv7e-m/fpu/libm.a(lib_a-ef_sqrt.o)
 .debug_loc     0x0000000000014ad2      0x221 /usr/lib/gcc/arm-none-eabi/4.9.3/../../../arm-none-eabi/lib/armv7e-m/fpu/libm.a(lib_a-kf_cos.o)
 .debug_loc     0x0000000000014cf3      0x878 /usr/lib/gcc/arm-none-eabi/4.9.3/../../../arm-none-eabi/lib/armv7e-m/fpu/libm.a(lib_a-kf_rem_pio2.o)
 .debug_loc     0x000000000001556b      0x166 /usr/lib/gcc/arm-none-eabi/4.9.3/../../../arm-none-eabi/lib/armv7e-m/fpu/libm.a(lib_a-kf_sin.o)
 .debug_loc     0x00000000000156d1      0x35a /usr/lib/gcc/arm-none-eabi/4.9.3/../../../arm-none-eabi/lib/armv7e-m/fpu/libm.a(lib_a-kf_tan.o)
 .debug_loc     0x0000000000015a2b       0x21 /usr/lib/gcc/arm-none-eabi/4.9.3/../../../arm-none-eabi/lib/armv7e-m/fpu/libm.a(lib_a-s_matherr.o)
 .debug_loc     0x0000000000015a4c      0x2b0 /usr/lib/gcc/arm-none-eabi/4.9.3/../../../arm-none-eabi/lib/armv7e-m/fpu/libm.a(lib_a-sf_atan.o)
 .debug_loc     0x0000000000015cfc       0x3e /usr/lib/gcc/arm-none-eabi/4.9.3/../../../arm-none-eabi/lib/armv7e-m/fpu/libm.a(lib_a-sf_fabs.o)
 .debug_loc     0x0000000000015d3a      0x276 /usr/lib/gcc/arm-none-eabi/4.9.3/../../../arm-none-eabi/lib/armv7e-m/fpu/libm.a(lib_a-sf_floor.o)
 .debug_loc     0x0000000000015fb0      0x32f /usr/lib/gcc/arm-none-eabi/4.9.3/../../../arm-none-eabi/lib/armv7e-m/fpu/libm.a(lib_a-sf_scalbn.o)
 .debug_loc     0x00000000000162df       0x70 /usr/lib/gcc/arm-none-eabi/4.9.3/../../../arm-none-eabi/lib/armv7e-m/fpu/libm.a(lib_a-sf_copysign.o)
 .debug_loc     0x000000000001634f      0x1ae /usr/lib/gcc/arm-none-eabi/4.9.3/../../../arm-none-eabi/lib/armv7e-m/fpu/libg.a(lib_a-memset.o)
 .debug_loc     0x00000000000164fd       0x21 /usr/lib/gcc/arm-none-eabi/4.9.3/../../../arm-none-eabi/lib/armv7e-m/fpu/libg.a(lib_a-strlen.o)
 .debug_loc     0x000000000001651e       0xb7 /usr/lib/gcc/arm-none-eabi/4.9.3/../../../arm-none-eabi/lib/armv7e-m/fpu/libg.a(lib_a-strpbrk.o)
 .debug_loc     0x00000000000165d5       0xb6 /usr/lib/gcc/arm-none-eabi/4.9.3/../../../arm-none-eabi/lib/armv7e-m/fpu/libg.a(lib_a-strspn.o)

.debug_aranges  0x0000000000000000      0xe10
 .debug_aranges
                0x0000000000000000       0x20 /tmp/cc5Oa950.ltrans0.ltrans.o
 .debug_aranges
                0x0000000000000020      0x1a8 /tmp/cc5Oa950.ltrans1.ltrans.o
 .debug_aranges
                0x00000000000001c8       0x80 /tmp/cc5Oa950.ltrans2.ltrans.o
 .debug_aranges
                0x0000000000000248       0xb8 /tmp/cc5Oa950.ltrans3.ltrans.o
 .debug_aranges
                0x0000000000000300       0x98 /tmp/cc5Oa950.ltrans4.ltrans.o
 .debug_aranges
                0x0000000000000398       0x80 /tmp/cc5Oa950.ltrans5.ltrans.o
 .debug_aranges
                0x0000000000000418       0xd0 /tmp/cc5Oa950.ltrans6.ltrans.o
 .debug_aranges
                0x00000000000004e8       0xf8 /tmp/cc5Oa950.ltrans7.ltrans.o
 .debug_aranges
                0x00000000000005e0       0x48 /tmp/cc5Oa950.ltrans8.ltrans.o
 .debug_aranges
                0x0000000000000628       0x38 /tmp/cc5Oa950.ltrans9.ltrans.o
 .debug_aranges
                0x0000000000000660       0x90 /tmp/cc5Oa950.ltrans10.ltrans.o
 .debug_aranges
                0x00000000000006f0       0x28 /tmp/cc5Oa950.ltrans11.ltrans.o
 .debug_aranges
                0x0000000000000718       0xa0 /tmp/cc5Oa950.ltrans12.ltrans.o
 .debug_aranges
                0x00000000000007b8       0x48 /tmp/cc5Oa950.ltrans13.ltrans.o
 .debug_aranges
                0x0000000000000800       0xc8 /tmp/cc5Oa950.ltrans14.ltrans.o
 .debug_aranges
                0x00000000000008c8       0x70 /tmp/cc5Oa950.ltrans15.ltrans.o
 .debug_aranges
                0x0000000000000938       0x88 /tmp/cc5Oa950.ltrans16.ltrans.o
 .debug_aranges
                0x00000000000009c0       0x20 /usr/lib/gcc/arm-none-eabi/4.9.3/../../../arm-none-eabi/lib/armv7e-m/fpu/libm.a(lib_a-sf_fpclassify.o)
 .debug_aranges
                0x00000000000009e0       0x20 /usr/lib/gcc/arm-none-eabi/4.9.3/../../../arm-none-eabi/lib/armv7e-m/fpu/libm.a(lib_a-sf_cos.o)
 .debug_aranges
                0x0000000000000a00       0x20 /usr/lib/gcc/arm-none-eabi/4.9.3/../../../arm-none-eabi/lib/armv7e-m/fpu/libm.a(lib_a-sf_sin.o)
 .debug_aranges
                0x0000000000000a20       0x20 /usr/lib/gcc/arm-none-eabi/4.9.3/../../../arm-none-eabi/lib/armv7e-m/fpu/libm.a(lib_a-sf_tan.o)
 .debug_aranges
                0x0000000000000a40       0x20 /usr/lib/gcc/arm-none-eabi/4.9.3/../../../arm-none-eabi/lib/armv7e-m/fpu/libm.a(lib_a-wf_asin.o)
 .debug_aranges
                0x0000000000000a60       0x20 /usr/lib/gcc/arm-none-eabi/4.9.3/../../../arm-none-eabi/lib/armv7e-m/fpu/libm.a(lib_a-wf_atan2.o)
 .debug_aranges
                0x0000000000000a80       0x20 /usr/lib/gcc/arm-none-eabi/4.9.3/../../../arm-none-eabi/lib/armv7e-m/fpu/libm.a(lib_a-wf_sqrt.o)
 .debug_aranges
                0x0000000000000aa0       0x20 /usr/lib/gcc/arm-none-eabi/4.9.3/../../../arm-none-eabi/lib/armv7e-m/fpu/libm.a(lib_a-ef_asin.o)
 .debug_aranges
                0x0000000000000ac0       0x20 /usr/lib/gcc/arm-none-eabi/4.9.3/../../../arm-none-eabi/lib/armv7e-m/fpu/libm.a(lib_a-ef_atan2.o)
 .debug_aranges
                0x0000000000000ae0       0x20 /usr/lib/gcc/arm-none-eabi/4.9.3/../../../arm-none-eabi/lib/armv7e-m/fpu/libm.a(lib_a-ef_rem_pio2.o)
 .debug_aranges
                0x0000000000000b00       0x20 /usr/lib/gcc/arm-none-eabi/4.9.3/../../../arm-none-eabi/lib/armv7e-m/fpu/libm.a(lib_a-ef_sqrt.o)
 .debug_aranges
                0x0000000000000b20       0x20 /usr/lib/gcc/arm-none-eabi/4.9.3/../../../arm-none-eabi/lib/armv7e-m/fpu/libm.a(lib_a-kf_cos.o)
 .debug_aranges
                0x0000000000000b40       0x20 /usr/lib/gcc/arm-none-eabi/4.9.3/../../../arm-none-eabi/lib/armv7e-m/fpu/libm.a(lib_a-kf_rem_pio2.o)
 .debug_aranges
                0x0000000000000b60       0x20 /usr/lib/gcc/arm-none-eabi/4.9.3/../../../arm-none-eabi/lib/armv7e-m/fpu/libm.a(lib_a-kf_sin.o)
 .debug_aranges
                0x0000000000000b80       0x20 /usr/lib/gcc/arm-none-eabi/4.9.3/../../../arm-none-eabi/lib/armv7e-m/fpu/libm.a(lib_a-kf_tan.o)
 .debug_aranges
                0x0000000000000ba0       0x18 /usr/lib/gcc/arm-none-eabi/4.9.3/../../../arm-none-eabi/lib/armv7e-m/fpu/libm.a(lib_a-s_lib_ver.o)
 .debug_aranges
                0x0000000000000bb8       0x20 /usr/lib/gcc/arm-none-eabi/4.9.3/../../../arm-none-eabi/lib/armv7e-m/fpu/libm.a(lib_a-s_matherr.o)
 .debug_aranges
                0x0000000000000bd8       0x20 /usr/lib/gcc/arm-none-eabi/4.9.3/../../../arm-none-eabi/lib/armv7e-m/fpu/libm.a(lib_a-s_nan.o)
 .debug_aranges
                0x0000000000000bf8       0x20 /usr/lib/gcc/arm-none-eabi/4.9.3/../../../arm-none-eabi/lib/armv7e-m/fpu/libm.a(lib_a-sf_atan.o)
 .debug_aranges
                0x0000000000000c18       0x20 /usr/lib/gcc/arm-none-eabi/4.9.3/../../../arm-none-eabi/lib/armv7e-m/fpu/libm.a(lib_a-sf_fabs.o)
 .debug_aranges
                0x0000000000000c38       0x20 /usr/lib/gcc/arm-none-eabi/4.9.3/../../../arm-none-eabi/lib/armv7e-m/fpu/libm.a(lib_a-sf_floor.o)
 .debug_aranges
                0x0000000000000c58       0x20 /usr/lib/gcc/arm-none-eabi/4.9.3/../../../arm-none-eabi/lib/armv7e-m/fpu/libm.a(lib_a-sf_scalbn.o)
 .debug_aranges
                0x0000000000000c78       0x20 /usr/lib/gcc/arm-none-eabi/4.9.3/../../../arm-none-eabi/lib/armv7e-m/fpu/libm.a(lib_a-sf_copysign.o)
 .debug_aranges
                0x0000000000000c98       0x20 /usr/lib/gcc/arm-none-eabi/4.9.3/armv7e-m/fpu/libgcc.a(_arm_addsubdf3.o)
 .debug_aranges
                0x0000000000000cb8       0x20 /usr/lib/gcc/arm-none-eabi/4.9.3/armv7e-m/fpu/libgcc.a(_arm_muldivdf3.o)
 .debug_aranges
                0x0000000000000cd8       0x20 /usr/lib/gcc/arm-none-eabi/4.9.3/armv7e-m/fpu/libgcc.a(_arm_fixdfsi.o)
 .debug_aranges
                0x0000000000000cf8       0x20 /usr/lib/gcc/arm-none-eabi/4.9.3/armv7e-m/fpu/libgcc.a(_arm_truncdfsf2.o)
 .debug_aranges
                0x0000000000000d18       0x20 /usr/lib/gcc/arm-none-eabi/4.9.3/../../../arm-none-eabi/lib/armv7e-m/fpu/libg.a(lib_a-errno.o)
 .debug_aranges
                0x0000000000000d38       0x18 /usr/lib/gcc/arm-none-eabi/4.9.3/../../../arm-none-eabi/lib/armv7e-m/fpu/libg.a(lib_a-impure.o)
 .debug_aranges
                0x0000000000000d50       0x20 /usr/lib/gcc/arm-none-eabi/4.9.3/../../../arm-none-eabi/lib/armv7e-m/fpu/libg.a(lib_a-memcpy.o)
 .debug_aranges
                0x0000000000000d70       0x20 /usr/lib/gcc/arm-none-eabi/4.9.3/../../../arm-none-eabi/lib/armv7e-m/fpu/libg.a(lib_a-memset.o)
 .debug_aranges
                0x0000000000000d90       0x20 /usr/lib/gcc/arm-none-eabi/4.9.3/../../../arm-none-eabi/lib/armv7e-m/fpu/libg.a(lib_a-strcmp.o)
 .debug_aranges
                0x0000000000000db0       0x20 /usr/lib/gcc/arm-none-eabi/4.9.3/../../../arm-none-eabi/lib/armv7e-m/fpu/libg.a(lib_a-strlen.o)
 .debug_aranges
                0x0000000000000dd0       0x20 /usr/lib/gcc/arm-none-eabi/4.9.3/../../../arm-none-eabi/lib/armv7e-m/fpu/libg.a(lib_a-strpbrk.o)
 .debug_aranges
                0x0000000000000df0       0x20 /usr/lib/gcc/arm-none-eabi/4.9.3/../../../arm-none-eabi/lib/armv7e-m/fpu/libg.a(lib_a-strspn.o)

.debug_ranges   0x0000000000000000     0x53e0
 .debug_ranges  0x0000000000000000     0x1258 /tmp/cc5Oa950.ltrans0.ltrans.o
 .debug_ranges  0x0000000000001258      0x6c8 /tmp/cc5Oa950.ltrans1.ltrans.o
 .debug_ranges  0x0000000000001920      0x508 /tmp/cc5Oa950.ltrans2.ltrans.o
 .debug_ranges  0x0000000000001e28      0x3f8 /tmp/cc5Oa950.ltrans3.ltrans.o
 .debug_ranges  0x0000000000002220      0x408 /tmp/cc5Oa950.ltrans4.ltrans.o
 .debug_ranges  0x0000000000002628      0x380 /tmp/cc5Oa950.ltrans5.ltrans.o
 .debug_ranges  0x00000000000029a8      0x2b8 /tmp/cc5Oa950.ltrans6.ltrans.o
 .debug_ranges  0x0000000000002c60      0x378 /tmp/cc5Oa950.ltrans7.ltrans.o
 .debug_ranges  0x0000000000002fd8      0x490 /tmp/cc5Oa950.ltrans8.ltrans.o
 .debug_ranges  0x0000000000003468      0x3e8 /tmp/cc5Oa950.ltrans9.ltrans.o
 .debug_ranges  0x0000000000003850      0x5d8 /tmp/cc5Oa950.ltrans10.ltrans.o
 .debug_ranges  0x0000000000003e28      0x380 /tmp/cc5Oa950.ltrans11.ltrans.o
 .debug_ranges  0x00000000000041a8      0x1e8 /tmp/cc5Oa950.ltrans12.ltrans.o
 .debug_ranges  0x0000000000004390      0x6d8 /tmp/cc5Oa950.ltrans13.ltrans.o
 .debug_ranges  0x0000000000004a68      0x3a8 /tmp/cc5Oa950.ltrans14.ltrans.o
 .debug_ranges  0x0000000000004e10      0x198 /tmp/cc5Oa950.ltrans15.ltrans.o
 .debug_ranges  0x0000000000004fa8      0x1f8 /tmp/cc5Oa950.ltrans16.ltrans.o
 .debug_ranges  0x00000000000051a0       0x10 /usr/lib/gcc/arm-none-eabi/4.9.3/../../../arm-none-eabi/lib/armv7e-m/fpu/libm.a(lib_a-sf_fpclassify.o)
 .debug_ranges  0x00000000000051b0       0x10 /usr/lib/gcc/arm-none-eabi/4.9.3/../../../arm-none-eabi/lib/armv7e-m/fpu/libm.a(lib_a-sf_cos.o)
 .debug_ranges  0x00000000000051c0       0x10 /usr/lib/gcc/arm-none-eabi/4.9.3/../../../arm-none-eabi/lib/armv7e-m/fpu/libm.a(lib_a-sf_sin.o)
 .debug_ranges  0x00000000000051d0       0x10 /usr/lib/gcc/arm-none-eabi/4.9.3/../../../arm-none-eabi/lib/armv7e-m/fpu/libm.a(lib_a-sf_tan.o)
 .debug_ranges  0x00000000000051e0       0x10 /usr/lib/gcc/arm-none-eabi/4.9.3/../../../arm-none-eabi/lib/armv7e-m/fpu/libm.a(lib_a-wf_asin.o)
 .debug_ranges  0x00000000000051f0       0x10 /usr/lib/gcc/arm-none-eabi/4.9.3/../../../arm-none-eabi/lib/armv7e-m/fpu/libm.a(lib_a-wf_atan2.o)
 .debug_ranges  0x0000000000005200       0x10 /usr/lib/gcc/arm-none-eabi/4.9.3/../../../arm-none-eabi/lib/armv7e-m/fpu/libm.a(lib_a-wf_sqrt.o)
 .debug_ranges  0x0000000000005210       0x10 /usr/lib/gcc/arm-none-eabi/4.9.3/../../../arm-none-eabi/lib/armv7e-m/fpu/libm.a(lib_a-ef_asin.o)
 .debug_ranges  0x0000000000005220       0x10 /usr/lib/gcc/arm-none-eabi/4.9.3/../../../arm-none-eabi/lib/armv7e-m/fpu/libm.a(lib_a-ef_atan2.o)
 .debug_ranges  0x0000000000005230       0x30 /usr/lib/gcc/arm-none-eabi/4.9.3/../../../arm-none-eabi/lib/armv7e-m/fpu/libm.a(lib_a-ef_rem_pio2.o)
 .debug_ranges  0x0000000000005260       0x10 /usr/lib/gcc/arm-none-eabi/4.9.3/../../../arm-none-eabi/lib/armv7e-m/fpu/libm.a(lib_a-ef_sqrt.o)
 .debug_ranges  0x0000000000005270       0x10 /usr/lib/gcc/arm-none-eabi/4.9.3/../../../arm-none-eabi/lib/armv7e-m/fpu/libm.a(lib_a-kf_cos.o)
 .debug_ranges  0x0000000000005280       0x10 /usr/lib/gcc/arm-none-eabi/4.9.3/../../../arm-none-eabi/lib/armv7e-m/fpu/libm.a(lib_a-kf_rem_pio2.o)
 .debug_ranges  0x0000000000005290       0x10 /usr/lib/gcc/arm-none-eabi/4.9.3/../../../arm-none-eabi/lib/armv7e-m/fpu/libm.a(lib_a-kf_sin.o)
 .debug_ranges  0x00000000000052a0       0x50 /usr/lib/gcc/arm-none-eabi/4.9.3/../../../arm-none-eabi/lib/armv7e-m/fpu/libm.a(lib_a-kf_tan.o)
 .debug_ranges  0x00000000000052f0       0x10 /usr/lib/gcc/arm-none-eabi/4.9.3/../../../arm-none-eabi/lib/armv7e-m/fpu/libm.a(lib_a-s_matherr.o)
 .debug_ranges  0x0000000000005300       0x10 /usr/lib/gcc/arm-none-eabi/4.9.3/../../../arm-none-eabi/lib/armv7e-m/fpu/libm.a(lib_a-s_nan.o)
 .debug_ranges  0x0000000000005310       0x10 /usr/lib/gcc/arm-none-eabi/4.9.3/../../../arm-none-eabi/lib/armv7e-m/fpu/libm.a(lib_a-sf_atan.o)
 .debug_ranges  0x0000000000005320       0x10 /usr/lib/gcc/arm-none-eabi/4.9.3/../../../arm-none-eabi/lib/armv7e-m/fpu/libm.a(lib_a-sf_fabs.o)
 .debug_ranges  0x0000000000005330       0x28 /usr/lib/gcc/arm-none-eabi/4.9.3/../../../arm-none-eabi/lib/armv7e-m/fpu/libm.a(lib_a-sf_floor.o)
 .debug_ranges  0x0000000000005358       0x28 /usr/lib/gcc/arm-none-eabi/4.9.3/../../../arm-none-eabi/lib/armv7e-m/fpu/libm.a(lib_a-sf_scalbn.o)
 .debug_ranges  0x0000000000005380       0x10 /usr/lib/gcc/arm-none-eabi/4.9.3/../../../arm-none-eabi/lib/armv7e-m/fpu/libm.a(lib_a-sf_copysign.o)
 .debug_ranges  0x0000000000005390       0x10 /usr/lib/gcc/arm-none-eabi/4.9.3/../../../arm-none-eabi/lib/armv7e-m/fpu/libg.a(lib_a-errno.o)
 .debug_ranges  0x00000000000053a0       0x10 /usr/lib/gcc/arm-none-eabi/4.9.3/../../../arm-none-eabi/lib/armv7e-m/fpu/libg.a(lib_a-memset.o)
 .debug_ranges  0x00000000000053b0       0x10 /usr/lib/gcc/arm-none-eabi/4.9.3/../../../arm-none-eabi/lib/armv7e-m/fpu/libg.a(lib_a-strlen.o)
 .debug_ranges  0x00000000000053c0       0x10 /usr/lib/gcc/arm-none-eabi/4.9.3/../../../arm-none-eabi/lib/armv7e-m/fpu/libg.a(lib_a-strpbrk.o)
 .debug_ranges  0x00000000000053d0       0x10 /usr/lib/gcc/arm-none-eabi/4.9.3/../../../arm-none-eabi/lib/armv7e-m/fpu/libg.a(lib_a-strspn.o)

.debug_line     0x0000000000000000     0xdd28
 .debug_line    0x0000000000000000     0x1321 /tmp/cc5Oa950.ltrans0.ltrans.o
 .debug_line    0x0000000000001321      0xeed /tmp/cc5Oa950.ltrans1.ltrans.o
 .debug_line    0x000000000000220e      0xa2e /tmp/cc5Oa950.ltrans2.ltrans.o
 .debug_line    0x0000000000002c3c      0xafb /tmp/cc5Oa950.ltrans3.ltrans.o
 .debug_line    0x0000000000003737      0xb94 /tmp/cc5Oa950.ltrans4.ltrans.o
 .debug_line    0x00000000000042cb      0x8cd /tmp/cc5Oa950.ltrans5.ltrans.o
 .debug_line    0x0000000000004b98      0xaef /tmp/cc5Oa950.ltrans6.ltrans.o
 .debug_line    0x0000000000005687      0x9c8 /tmp/cc5Oa950.ltrans7.ltrans.o
 .debug_line    0x000000000000604f      0x9d7 /tmp/cc5Oa950.ltrans8.ltrans.o
 .debug_line    0x0000000000006a26      0x744 /tmp/cc5Oa950.ltrans9.ltrans.o
 .debug_line    0x000000000000716a      0xcc7 /tmp/cc5Oa950.ltrans10.ltrans.o
 .debug_line    0x0000000000007e31      0x7e5 /tmp/cc5Oa950.ltrans11.ltrans.o
 .debug_line    0x0000000000008616      0x8c6 /tmp/cc5Oa950.ltrans12.ltrans.o
 .debug_line    0x0000000000008edc      0xaaa /tmp/cc5Oa950.ltrans13.ltrans.o
 .debug_line    0x0000000000009986      0x9a4 /tmp/cc5Oa950.ltrans14.ltrans.o
 .debug_line    0x000000000000a32a      0x767 /tmp/cc5Oa950.ltrans15.ltrans.o
 .debug_line    0x000000000000aa91      0x5fa /tmp/cc5Oa950.ltrans16.ltrans.o
 .debug_line    0x000000000000b08b      0x129 /usr/lib/gcc/arm-none-eabi/4.9.3/../../../arm-none-eabi/lib/armv7e-m/fpu/libm.a(lib_a-sf_fpclassify.o)
 .debug_line    0x000000000000b1b4      0x17f /usr/lib/gcc/arm-none-eabi/4.9.3/../../../arm-none-eabi/lib/armv7e-m/fpu/libm.a(lib_a-sf_cos.o)
 .debug_line    0x000000000000b333      0x17f /usr/lib/gcc/arm-none-eabi/4.9.3/../../../arm-none-eabi/lib/armv7e-m/fpu/libm.a(lib_a-sf_sin.o)
 .debug_line    0x000000000000b4b2      0x17a /usr/lib/gcc/arm-none-eabi/4.9.3/../../../arm-none-eabi/lib/armv7e-m/fpu/libm.a(lib_a-sf_tan.o)
 .debug_line    0x000000000000b62c      0x175 /usr/lib/gcc/arm-none-eabi/4.9.3/../../../arm-none-eabi/lib/armv7e-m/fpu/libm.a(lib_a-wf_asin.o)
 .debug_line    0x000000000000b7a1       0xf1 /usr/lib/gcc/arm-none-eabi/4.9.3/../../../arm-none-eabi/lib/armv7e-m/fpu/libm.a(lib_a-wf_atan2.o)
 .debug_line    0x000000000000b892      0x177 /usr/lib/gcc/arm-none-eabi/4.9.3/../../../arm-none-eabi/lib/armv7e-m/fpu/libm.a(lib_a-wf_sqrt.o)
 .debug_line    0x000000000000ba09      0x1b8 /usr/lib/gcc/arm-none-eabi/4.9.3/../../../arm-none-eabi/lib/armv7e-m/fpu/libm.a(lib_a-ef_asin.o)
 .debug_line    0x000000000000bbc1      0x1df /usr/lib/gcc/arm-none-eabi/4.9.3/../../../arm-none-eabi/lib/armv7e-m/fpu/libm.a(lib_a-ef_atan2.o)
 .debug_line    0x000000000000bda0      0x1fa /usr/lib/gcc/arm-none-eabi/4.9.3/../../../arm-none-eabi/lib/armv7e-m/fpu/libm.a(lib_a-ef_rem_pio2.o)
 .debug_line    0x000000000000bf9a      0x14a /usr/lib/gcc/arm-none-eabi/4.9.3/../../../arm-none-eabi/lib/armv7e-m/fpu/libm.a(lib_a-ef_sqrt.o)
 .debug_line    0x000000000000c0e4      0x11b /usr/lib/gcc/arm-none-eabi/4.9.3/../../../arm-none-eabi/lib/armv7e-m/fpu/libm.a(lib_a-kf_cos.o)
 .debug_line    0x000000000000c1ff      0x35c /usr/lib/gcc/arm-none-eabi/4.9.3/../../../arm-none-eabi/lib/armv7e-m/fpu/libm.a(lib_a-kf_rem_pio2.o)
 .debug_line    0x000000000000c55b      0x110 /usr/lib/gcc/arm-none-eabi/4.9.3/../../../arm-none-eabi/lib/armv7e-m/fpu/libm.a(lib_a-kf_sin.o)
 .debug_line    0x000000000000c66b      0x1c0 /usr/lib/gcc/arm-none-eabi/4.9.3/../../../arm-none-eabi/lib/armv7e-m/fpu/libm.a(lib_a-kf_tan.o)
 .debug_line    0x000000000000c82b       0xa8 /usr/lib/gcc/arm-none-eabi/4.9.3/../../../arm-none-eabi/lib/armv7e-m/fpu/libm.a(lib_a-s_lib_ver.o)
 .debug_line    0x000000000000c8d3       0xb9 /usr/lib/gcc/arm-none-eabi/4.9.3/../../../arm-none-eabi/lib/armv7e-m/fpu/libm.a(lib_a-s_matherr.o)
 .debug_line    0x000000000000c98c       0xb6 /usr/lib/gcc/arm-none-eabi/4.9.3/../../../arm-none-eabi/lib/armv7e-m/fpu/libm.a(lib_a-s_nan.o)
 .debug_line    0x000000000000ca42      0x1a4 /usr/lib/gcc/arm-none-eabi/4.9.3/../../../arm-none-eabi/lib/armv7e-m/fpu/libm.a(lib_a-sf_atan.o)
 .debug_line    0x000000000000cbe6      0x11b /usr/lib/gcc/arm-none-eabi/4.9.3/../../../arm-none-eabi/lib/armv7e-m/fpu/libm.a(lib_a-sf_fabs.o)
 .debug_line    0x000000000000cd01      0x1ae /usr/lib/gcc/arm-none-eabi/4.9.3/../../../arm-none-eabi/lib/armv7e-m/fpu/libm.a(lib_a-sf_floor.o)
 .debug_line    0x000000000000ceaf      0x15c /usr/lib/gcc/arm-none-eabi/4.9.3/../../../arm-none-eabi/lib/armv7e-m/fpu/libm.a(lib_a-sf_scalbn.o)
 .debug_line    0x000000000000d00b      0x12e /usr/lib/gcc/arm-none-eabi/4.9.3/../../../arm-none-eabi/lib/armv7e-m/fpu/libm.a(lib_a-sf_copysign.o)
 .debug_line    0x000000000000d139      0x179 /usr/lib/gcc/arm-none-eabi/4.9.3/armv7e-m/fpu/libgcc.a(_arm_addsubdf3.o)
 .debug_line    0x000000000000d2b2      0x19d /usr/lib/gcc/arm-none-eabi/4.9.3/armv7e-m/fpu/libgcc.a(_arm_muldivdf3.o)
 .debug_line    0x000000000000d44f       0x7a /usr/lib/gcc/arm-none-eabi/4.9.3/armv7e-m/fpu/libgcc.a(_arm_fixdfsi.o)
 .debug_line    0x000000000000d4c9       0x8e /usr/lib/gcc/arm-none-eabi/4.9.3/armv7e-m/fpu/libgcc.a(_arm_truncdfsf2.o)
 .debug_line    0x000000000000d557      0x10f /usr/lib/gcc/arm-none-eabi/4.9.3/../../../arm-none-eabi/lib/armv7e-m/fpu/libg.a(lib_a-errno.o)
 .debug_line    0x000000000000d666       0xf4 /usr/lib/gcc/arm-none-eabi/4.9.3/../../../arm-none-eabi/lib/armv7e-m/fpu/libg.a(lib_a-impure.o)
 .debug_line    0x000000000000d75a       0xbb /usr/lib/gcc/arm-none-eabi/4.9.3/../../../arm-none-eabi/lib/armv7e-m/fpu/libg.a(lib_a-memcpy.o)
 .debug_line    0x000000000000d815      0x11c /usr/lib/gcc/arm-none-eabi/4.9.3/../../../arm-none-eabi/lib/armv7e-m/fpu/libg.a(lib_a-memset.o)
 .debug_line    0x000000000000d931      0x134 /usr/lib/gcc/arm-none-eabi/4.9.3/../../../arm-none-eabi/lib/armv7e-m/fpu/libg.a(lib_a-strcmp.o)
 .debug_line    0x000000000000da65       0xf5 /usr/lib/gcc/arm-none-eabi/4.9.3/../../../arm-none-eabi/lib/armv7e-m/fpu/libg.a(lib_a-strlen.o)
 .debug_line    0x000000000000db5a       0xd1 /usr/lib/gcc/arm-none-eabi/4.9.3/../../../arm-none-eabi/lib/armv7e-m/fpu/libg.a(lib_a-strpbrk.o)
 .debug_line    0x000000000000dc2b       0xfd /usr/lib/gcc/arm-none-eabi/4.9.3/../../../arm-none-eabi/lib/armv7e-m/fpu/libg.a(lib_a-strspn.o)

.debug_str      0x0000000000000000     0x75da
 .debug_str     0x0000000000000000     0x2613 /tmp/cc5Oa950.ltrans0.ltrans.o
                                       0x2834 (size before relaxing)
 .debug_str     0x0000000000002613      0x790 /tmp/cc5Oa950.ltrans1.ltrans.o
                                        0xf07 (size before relaxing)
 .debug_str     0x0000000000002da3      0x61c /tmp/cc5Oa950.ltrans2.ltrans.o
                                       0x1036 (size before relaxing)
 .debug_str     0x00000000000033bf      0x4ed /tmp/cc5Oa950.ltrans3.ltrans.o
                                       0x11e6 (size before relaxing)
 .debug_str     0x00000000000038ac      0x2fb /tmp/cc5Oa950.ltrans4.ltrans.o
                                       0x1406 (size before relaxing)
 .debug_str     0x0000000000003ba7      0x494 /tmp/cc5Oa950.ltrans5.ltrans.o
                                        0xf29 (size before relaxing)
 .debug_str     0x000000000000403b      0x31d /tmp/cc5Oa950.ltrans6.ltrans.o
                                       0x1371 (size before relaxing)
 .debug_str     0x0000000000004358      0x244 /tmp/cc5Oa950.ltrans7.ltrans.o
                                       0x122c (size before relaxing)
 .debug_str     0x000000000000459c      0x41d /tmp/cc5Oa950.ltrans8.ltrans.o
                                       0x103d (size before relaxing)
 .debug_str     0x00000000000049b9      0x261 /tmp/cc5Oa950.ltrans9.ltrans.o
                                        0xd6e (size before relaxing)
 .debug_str     0x0000000000004c1a      0x6b1 /tmp/cc5Oa950.ltrans10.ltrans.o
                                       0x20f7 (size before relaxing)
 .debug_str     0x00000000000052cb      0x40d /tmp/cc5Oa950.ltrans11.ltrans.o
                                        0xe32 (size before relaxing)
 .debug_str     0x00000000000056d8      0x5f0 /tmp/cc5Oa950.ltrans12.ltrans.o
                                       0x13bf (size before relaxing)
 .debug_str     0x0000000000005cc8      0x5b7 /tmp/cc5Oa950.ltrans13.ltrans.o
                                       0x1265 (size before relaxing)
 .debug_str     0x000000000000627f      0x2a6 /tmp/cc5Oa950.ltrans14.ltrans.o
                                       0x155f (size before relaxing)
 .debug_str     0x0000000000006525      0x2e0 /tmp/cc5Oa950.ltrans15.ltrans.o
                                       0x1175 (size before relaxing)
 .debug_str     0x0000000000006805      0x1a3 /tmp/cc5Oa950.ltrans16.ltrans.o
                                       0x12cc (size before relaxing)
 .debug_str     0x00000000000069a8      0x1f0 /usr/lib/gcc/arm-none-eabi/4.9.3/../../../arm-none-eabi/lib/armv7e-m/fpu/libm.a(lib_a-sf_fpclassify.o)
                                        0x236 (size before relaxing)
 .debug_str     0x0000000000006b98       0xe2 /usr/lib/gcc/arm-none-eabi/4.9.3/../../../arm-none-eabi/lib/armv7e-m/fpu/libm.a(lib_a-sf_cos.o)
                                        0x282 (size before relaxing)
 .debug_str     0x0000000000006c7a       0x2f /usr/lib/gcc/arm-none-eabi/4.9.3/../../../arm-none-eabi/lib/armv7e-m/fpu/libm.a(lib_a-sf_sin.o)
                                        0x282 (size before relaxing)
 .debug_str     0x0000000000006ca9       0x3d /usr/lib/gcc/arm-none-eabi/4.9.3/../../../arm-none-eabi/lib/armv7e-m/fpu/libm.a(lib_a-sf_tan.o)
                                        0x274 (size before relaxing)
 .debug_str     0x0000000000006ce6       0xc2 /usr/lib/gcc/arm-none-eabi/4.9.3/../../../arm-none-eabi/lib/armv7e-m/fpu/libm.a(lib_a-wf_asin.o)
                                        0x2cd (size before relaxing)
 .debug_str     0x0000000000006da8       0x42 /usr/lib/gcc/arm-none-eabi/4.9.3/../../../arm-none-eabi/lib/armv7e-m/fpu/libm.a(lib_a-wf_atan2.o)
                                        0x22c (size before relaxing)
 .debug_str     0x0000000000006dea       0x40 /usr/lib/gcc/arm-none-eabi/4.9.3/../../../arm-none-eabi/lib/armv7e-m/fpu/libm.a(lib_a-wf_sqrt.o)
                                        0x2c7 (size before relaxing)
 .debug_str     0x0000000000006e2a       0x52 /usr/lib/gcc/arm-none-eabi/4.9.3/../../../arm-none-eabi/lib/armv7e-m/fpu/libm.a(lib_a-ef_asin.o)
                                        0x296 (size before relaxing)
 .debug_str     0x0000000000006e7c       0x50 /usr/lib/gcc/arm-none-eabi/4.9.3/../../../arm-none-eabi/lib/armv7e-m/fpu/libm.a(lib_a-ef_atan2.o)
                                        0x28f (size before relaxing)
 .debug_str     0x0000000000006ecc       0xa0 /usr/lib/gcc/arm-none-eabi/4.9.3/../../../arm-none-eabi/lib/armv7e-m/fpu/libm.a(lib_a-ef_rem_pio2.o)
                                        0x2e2 (size before relaxing)
 .debug_str     0x0000000000006f6c       0x30 /usr/lib/gcc/arm-none-eabi/4.9.3/../../../arm-none-eabi/lib/armv7e-m/fpu/libm.a(lib_a-ef_sqrt.o)
                                        0x268 (size before relaxing)
 .debug_str     0x0000000000006f9c       0x2f /usr/lib/gcc/arm-none-eabi/4.9.3/../../../arm-none-eabi/lib/armv7e-m/fpu/libm.a(lib_a-kf_cos.o)
                                        0x260 (size before relaxing)
 .debug_str     0x0000000000006fcb       0x71 /usr/lib/gcc/arm-none-eabi/4.9.3/../../../arm-none-eabi/lib/armv7e-m/fpu/libm.a(lib_a-kf_rem_pio2.o)
                                        0x27b (size before relaxing)
 .debug_str     0x000000000000703c       0x2f /usr/lib/gcc/arm-none-eabi/4.9.3/../../../arm-none-eabi/lib/armv7e-m/fpu/libm.a(lib_a-kf_sin.o)
                                        0x260 (size before relaxing)
 .debug_str     0x000000000000706b       0x3b /usr/lib/gcc/arm-none-eabi/4.9.3/../../../arm-none-eabi/lib/armv7e-m/fpu/libm.a(lib_a-kf_tan.o)
                                        0x272 (size before relaxing)
 .debug_str     0x00000000000070a6       0x34 /usr/lib/gcc/arm-none-eabi/4.9.3/../../../arm-none-eabi/lib/armv7e-m/fpu/libm.a(lib_a-s_lib_ver.o)
                                        0x274 (size before relaxing)
 .debug_str     0x00000000000070da       0x34 /usr/lib/gcc/arm-none-eabi/4.9.3/../../../arm-none-eabi/lib/armv7e-m/fpu/libm.a(lib_a-s_matherr.o)
                                        0x246 (size before relaxing)
 .debug_str     0x000000000000710e       0x30 /usr/lib/gcc/arm-none-eabi/4.9.3/../../../arm-none-eabi/lib/armv7e-m/fpu/libm.a(lib_a-s_nan.o)
                                        0x21c (size before relaxing)
 .debug_str     0x000000000000713e       0x3e /usr/lib/gcc/arm-none-eabi/4.9.3/../../../arm-none-eabi/lib/armv7e-m/fpu/libm.a(lib_a-sf_atan.o)
                                        0x26d (size before relaxing)
 .debug_str     0x000000000000717c       0x30 /usr/lib/gcc/arm-none-eabi/4.9.3/../../../arm-none-eabi/lib/armv7e-m/fpu/libm.a(lib_a-sf_fabs.o)
                                        0x224 (size before relaxing)
 .debug_str     0x00000000000071ac       0xaa /usr/lib/gcc/arm-none-eabi/4.9.3/../../../arm-none-eabi/lib/armv7e-m/fpu/libm.a(lib_a-sf_floor.o)
                                        0x26c (size before relaxing)
 .debug_str     0x0000000000007256       0x4b /usr/lib/gcc/arm-none-eabi/4.9.3/../../../arm-none-eabi/lib/armv7e-m/fpu/libm.a(lib_a-sf_scalbn.o)
                                        0x282 (size before relaxing)
 .debug_str     0x00000000000072a1       0x36 /usr/lib/gcc/arm-none-eabi/4.9.3/../../../arm-none-eabi/lib/armv7e-m/fpu/libm.a(lib_a-sf_copysign.o)
                                        0x256 (size before relaxing)
 .debug_str     0x00000000000072d7       0x98 /usr/lib/gcc/arm-none-eabi/4.9.3/../../../arm-none-eabi/lib/armv7e-m/fpu/libg.a(lib_a-errno.o)
                                        0x5c4 (size before relaxing)
 .debug_str     0x000000000000736f       0xb8 /usr/lib/gcc/arm-none-eabi/4.9.3/../../../arm-none-eabi/lib/armv7e-m/fpu/libg.a(lib_a-impure.o)
                                        0x5dc (size before relaxing)
 .debug_str     0x0000000000007427       0xa8 /usr/lib/gcc/arm-none-eabi/4.9.3/../../../arm-none-eabi/lib/armv7e-m/fpu/libg.a(lib_a-memset.o)
                                        0x21f (size before relaxing)
 .debug_str     0x00000000000074cf       0xa8 /usr/lib/gcc/arm-none-eabi/4.9.3/../../../arm-none-eabi/lib/armv7e-m/fpu/libg.a(lib_a-strlen.o)
                                        0x218 (size before relaxing)
 .debug_str     0x0000000000007577       0x32 /usr/lib/gcc/arm-none-eabi/4.9.3/../../../arm-none-eabi/lib/armv7e-m/fpu/libg.a(lib_a-strpbrk.o)
                                        0x206 (size before relaxing)
 .debug_str     0x00000000000075a9       0x31 /usr/lib/gcc/arm-none-eabi/4.9.3/../../../arm-none-eabi/lib/armv7e-m/fpu/libg.a(lib_a-strspn.o)
                                        0x20b (size before relaxing)

.debug_frame    0x0000000000000000     0x25d8
 .debug_frame   0x0000000000000000       0x2c /tmp/cc5Oa950.ltrans0.ltrans.o
 .debug_frame   0x000000000000002c      0x4cc /tmp/cc5Oa950.ltrans1.ltrans.o
 .debug_frame   0x00000000000004f8      0x20c /tmp/cc5Oa950.ltrans2.ltrans.o
 .debug_frame   0x0000000000000704      0x25c /tmp/cc5Oa950.ltrans3.ltrans.o
 .debug_frame   0x0000000000000960      0x238 /tmp/cc5Oa950.ltrans4.ltrans.o
 .debug_frame   0x0000000000000b98      0x1c0 /tmp/cc5Oa950.ltrans5.ltrans.o
 .debug_frame   0x0000000000000d58      0x2cc /tmp/cc5Oa950.ltrans6.ltrans.o
 .debug_frame   0x0000000000001024      0x37c /tmp/cc5Oa950.ltrans7.ltrans.o
 .debug_frame   0x00000000000013a0       0xe0 /tmp/cc5Oa950.ltrans8.ltrans.o
 .debug_frame   0x0000000000001480       0xa0 /tmp/cc5Oa950.ltrans9.ltrans.o
 .debug_frame   0x0000000000001520      0x1fc /tmp/cc5Oa950.ltrans10.ltrans.o
 .debug_frame   0x000000000000171c       0x88 /tmp/cc5Oa950.ltrans11.ltrans.o
 .debug_frame   0x00000000000017a4      0x214 /tmp/cc5Oa950.ltrans12.ltrans.o
 .debug_frame   0x00000000000019b8      0x130 /tmp/cc5Oa950.ltrans13.ltrans.o
 .debug_frame   0x0000000000001ae8      0x2c8 /tmp/cc5Oa950.ltrans14.ltrans.o
 .debug_frame   0x0000000000001db0      0x150 /tmp/cc5Oa950.ltrans15.ltrans.o
 .debug_frame   0x0000000000001f00      0x150 /tmp/cc5Oa950.ltrans16.ltrans.o
 .debug_frame   0x0000000000002050       0x20 /usr/lib/gcc/arm-none-eabi/4.9.3/../../../arm-none-eabi/lib/armv7e-m/fpu/libm.a(lib_a-sf_fpclassify.o)
 .debug_frame   0x0000000000002070       0x34 /usr/lib/gcc/arm-none-eabi/4.9.3/../../../arm-none-eabi/lib/armv7e-m/fpu/libm.a(lib_a-sf_cos.o)
 .debug_frame   0x00000000000020a4       0x34 /usr/lib/gcc/arm-none-eabi/4.9.3/../../../arm-none-eabi/lib/armv7e-m/fpu/libm.a(lib_a-sf_sin.o)
 .debug_frame   0x00000000000020d8       0x38 /usr/lib/gcc/arm-none-eabi/4.9.3/../../../arm-none-eabi/lib/armv7e-m/fpu/libm.a(lib_a-sf_tan.o)
 .debug_frame   0x0000000000002110       0x50 /usr/lib/gcc/arm-none-eabi/4.9.3/../../../arm-none-eabi/lib/armv7e-m/fpu/libm.a(lib_a-wf_asin.o)
 .debug_frame   0x0000000000002160       0x20 /usr/lib/gcc/arm-none-eabi/4.9.3/../../../arm-none-eabi/lib/armv7e-m/fpu/libm.a(lib_a-wf_atan2.o)
 .debug_frame   0x0000000000002180       0x50 /usr/lib/gcc/arm-none-eabi/4.9.3/../../../arm-none-eabi/lib/armv7e-m/fpu/libm.a(lib_a-wf_sqrt.o)
 .debug_frame   0x00000000000021d0       0x70 /usr/lib/gcc/arm-none-eabi/4.9.3/../../../arm-none-eabi/lib/armv7e-m/fpu/libm.a(lib_a-ef_asin.o)
 .debug_frame   0x0000000000002240       0x48 /usr/lib/gcc/arm-none-eabi/4.9.3/../../../arm-none-eabi/lib/armv7e-m/fpu/libm.a(lib_a-ef_atan2.o)
 .debug_frame   0x0000000000002288       0x3c /usr/lib/gcc/arm-none-eabi/4.9.3/../../../arm-none-eabi/lib/armv7e-m/fpu/libm.a(lib_a-ef_rem_pio2.o)
 .debug_frame   0x00000000000022c4       0x3c /usr/lib/gcc/arm-none-eabi/4.9.3/../../../arm-none-eabi/lib/armv7e-m/fpu/libm.a(lib_a-ef_sqrt.o)
 .debug_frame   0x0000000000002300       0x20 /usr/lib/gcc/arm-none-eabi/4.9.3/../../../arm-none-eabi/lib/armv7e-m/fpu/libm.a(lib_a-kf_cos.o)
 .debug_frame   0x0000000000002320       0x5c /usr/lib/gcc/arm-none-eabi/4.9.3/../../../arm-none-eabi/lib/armv7e-m/fpu/libm.a(lib_a-kf_rem_pio2.o)
 .debug_frame   0x000000000000237c       0x20 /usr/lib/gcc/arm-none-eabi/4.9.3/../../../arm-none-eabi/lib/armv7e-m/fpu/libm.a(lib_a-kf_sin.o)
 .debug_frame   0x000000000000239c       0x50 /usr/lib/gcc/arm-none-eabi/4.9.3/../../../arm-none-eabi/lib/armv7e-m/fpu/libm.a(lib_a-kf_tan.o)
 .debug_frame   0x00000000000023ec       0x20 /usr/lib/gcc/arm-none-eabi/4.9.3/../../../arm-none-eabi/lib/armv7e-m/fpu/libm.a(lib_a-s_matherr.o)
 .debug_frame   0x000000000000240c       0x20 /usr/lib/gcc/arm-none-eabi/4.9.3/../../../arm-none-eabi/lib/armv7e-m/fpu/libm.a(lib_a-s_nan.o)
 .debug_frame   0x000000000000242c       0x2c /usr/lib/gcc/arm-none-eabi/4.9.3/../../../arm-none-eabi/lib/armv7e-m/fpu/libm.a(lib_a-sf_atan.o)
 .debug_frame   0x0000000000002458       0x20 /usr/lib/gcc/arm-none-eabi/4.9.3/../../../arm-none-eabi/lib/armv7e-m/fpu/libm.a(lib_a-sf_fabs.o)
 .debug_frame   0x0000000000002478       0x20 /usr/lib/gcc/arm-none-eabi/4.9.3/../../../arm-none-eabi/lib/armv7e-m/fpu/libm.a(lib_a-sf_floor.o)
 .debug_frame   0x0000000000002498       0x44 /usr/lib/gcc/arm-none-eabi/4.9.3/../../../arm-none-eabi/lib/armv7e-m/fpu/libm.a(lib_a-sf_scalbn.o)
 .debug_frame   0x00000000000024dc       0x20 /usr/lib/gcc/arm-none-eabi/4.9.3/../../../arm-none-eabi/lib/armv7e-m/fpu/libm.a(lib_a-sf_copysign.o)
 .debug_frame   0x00000000000024fc       0x20 /usr/lib/gcc/arm-none-eabi/4.9.3/../../../arm-none-eabi/lib/armv7e-m/fpu/libg.a(lib_a-errno.o)
 .debug_frame   0x000000000000251c       0x34 /usr/lib/gcc/arm-none-eabi/4.9.3/../../../arm-none-eabi/lib/armv7e-m/fpu/libg.a(lib_a-memset.o)
 .debug_frame   0x0000000000002550       0x20 /usr/lib/gcc/arm-none-eabi/4.9.3/../../../arm-none-eabi/lib/armv7e-m/fpu/libg.a(lib_a-strlen.o)
 .debug_frame   0x0000000000002570       0x34 /usr/lib/gcc/arm-none-eabi/4.9.3/../../../arm-none-eabi/lib/armv7e-m/fpu/libg.a(lib_a-strpbrk.o)
 .debug_frame   0x00000000000025a4       0x34 /usr/lib/gcc/arm-none-eabi/4.9.3/../../../arm-none-eabi/lib/armv7e-m/fpu/libg.a(lib_a-strspn.o)

Cross Reference Table

Symbol                                            File
Attitude_thread.lto_priv.129                      /tmp/cc5Oa950.ltrans11.ltrans.o
                                                  /tmp/cc5Oa950.ltrans0.ltrans.o
BusFault_Handler                                  /tmp/cc5Oa950.ltrans1.ltrans.o
                                                  build/obj/vectors.o (symbol from plugin)
                                                  /tmp/cc5Oa950.ltrans3.ltrans.o
CAND1                                             /tmp/cc5Oa950.ltrans9.ltrans.o
                                                  build/obj/can_lld.o (symbol from plugin)
                                                  /tmp/cc5Oa950.ltrans7.ltrans.o
                                                  /tmp/cc5Oa950.ltrans0.ltrans.o
                                                  build/obj/exti.o (symbol from plugin)
                                                  build/obj/gimbal_sys_iden.o (symbol from plugin)
                                                  build/obj/gimbal.o (symbol from plugin)
                                                  build/obj/canBusProcess.o (symbol from plugin)
CAND2                                             /tmp/cc5Oa950.ltrans0.ltrans.o
                                                  build/obj/can_lld.o (symbol from plugin)
                                                  /tmp/cc5Oa950.ltrans7.ltrans.o
                                                  build/obj/canBusProcess.o (symbol from plugin)
DebugMon_Handler                                  /tmp/cc5Oa950.ltrans1.ltrans.o
                                                  build/obj/vectors.o (symbol from plugin)
                                                  /tmp/cc5Oa950.ltrans3.ltrans.o
EXTD1                                             /tmp/cc5Oa950.ltrans15.ltrans.o
                                                  build/obj/ext_lld.o (symbol from plugin)
                                                  /tmp/cc5Oa950.ltrans7.ltrans.o
                                                  /tmp/cc5Oa950.ltrans0.ltrans.o
                                                  build/obj/exti.o (symbol from plugin)
                                                  build/obj/ext_lld_isr.o (symbol from plugin)
FatFs.lto_priv.184                                /tmp/cc5Oa950.ltrans0.ltrans.o
                                                  /tmp/cc5Oa950.ltrans12.ltrans.o
HardFault_Handler                                 /tmp/cc5Oa950.ltrans1.ltrans.o
                                                  build/obj/vectors.o (symbol from plugin)
                                                  /tmp/cc5Oa950.ltrans3.ltrans.o
LfnOfs.lto_priv.183                               /tmp/cc5Oa950.ltrans9.ltrans.o
                                                  /tmp/cc5Oa950.ltrans12.ltrans.o
MemManage_Handler                                 /tmp/cc5Oa950.ltrans1.ltrans.o
                                                  build/obj/vectors.o (symbol from plugin)
                                                  /tmp/cc5Oa950.ltrans3.ltrans.o
MotorToggleThread.lto_priv.140                    /tmp/cc5Oa950.ltrans10.ltrans.o
                                                  /tmp/cc5Oa950.ltrans0.ltrans.o
NMI_Handler                                       /tmp/cc5Oa950.ltrans1.ltrans.o
                                                  build/obj/vectors.o (symbol from plugin)
                                                  /tmp/cc5Oa950.ltrans3.ltrans.o
PWMD1                                             /tmp/cc5Oa950.ltrans0.ltrans.o
                                                  build/obj/pwm_lld.o (symbol from plugin)
                                                  /tmp/cc5Oa950.ltrans14.ltrans.o
                                                  /tmp/cc5Oa950.ltrans3.ltrans.o
PWMD12                                            /tmp/cc5Oa950.ltrans0.ltrans.o
                                                  build/obj/pwm_lld.o (symbol from plugin)
                                                  /tmp/cc5Oa950.ltrans3.ltrans.o
                                                  build/obj/pwm_struct.o (symbol from plugin)
PWMD3                                             /tmp/cc5Oa950.ltrans10.ltrans.o
                                                  build/obj/pwm_lld.o (symbol from plugin)
                                                  /tmp/cc5Oa950.ltrans14.ltrans.o
                                                  /tmp/cc5Oa950.ltrans3.ltrans.o
                                                  /tmp/cc5Oa950.ltrans0.ltrans.o
                                                  build/obj/imu_temp.o (symbol from plugin)
                                                  build/obj/pwm_struct.o (symbol from plugin)
PWMD4                                             /tmp/cc5Oa950.ltrans0.ltrans.o
                                                  build/obj/pwm_lld.o (symbol from plugin)
                                                  /tmp/cc5Oa950.ltrans14.ltrans.o
                                                  /tmp/cc5Oa950.ltrans3.ltrans.o
                                                  build/obj/pwm_struct.o (symbol from plugin)
PWMD8                                             /tmp/cc5Oa950.ltrans10.ltrans.o
                                                  build/obj/pwm_lld.o (symbol from plugin)
                                                  /tmp/cc5Oa950.ltrans14.ltrans.o
                                                  /tmp/cc5Oa950.ltrans3.ltrans.o
                                                  /tmp/cc5Oa950.ltrans0.ltrans.o
                                                  build/obj/pwm_struct.o (symbol from plugin)
                                                  build/obj/shoot_pwm.o (symbol from plugin)
PendSV_Handler                                    /tmp/cc5Oa950.ltrans1.ltrans.o
                                                  build/obj/vectors.o (symbol from plugin)
                                                  /tmp/cc5Oa950.ltrans3.ltrans.o
RC_Ctl.lto_priv.155                               /tmp/cc5Oa950.ltrans8.ltrans.o
                                                  /tmp/cc5Oa950.ltrans0.ltrans.o
RC_get                                            build/obj/dbus.o (symbol from plugin)
RC_init                                           build/obj/dbus.o (symbol from plugin)
                                                  build/obj/main.o (symbol from plugin)
Reset_Handler                                     build/obj/crt0_v7m.o
                                                  /tmp/cc5Oa950.ltrans3.ltrans.o
                                                  build/obj/vectors.o (symbol from plugin)
SDCD1                                             /tmp/cc5Oa950.ltrans15.ltrans.o
                                                  build/obj/sdc_lld.o (symbol from plugin)
                                                  /tmp/cc5Oa950.ltrans14.ltrans.o
                                                  /tmp/cc5Oa950.ltrans12.ltrans.o
                                                  /tmp/cc5Oa950.ltrans3.ltrans.o
                                                  /tmp/cc5Oa950.ltrans0.ltrans.o
                                                  build/obj/sdlog.o (symbol from plugin)
                                                  build/obj/fatfs_diskio.o (symbol from plugin)
SDU1                                              /tmp/cc5Oa950.ltrans10.ltrans.o
                                                  build/obj/usbcfg.o (symbol from plugin)
                                                  /tmp/cc5Oa950.ltrans2.ltrans.o
                                                  /tmp/cc5Oa950.ltrans0.ltrans.o
                                                  build/obj/calibrate_sensor.o (symbol from plugin)
                                                  build/obj/shellcfg.o (symbol from plugin)
SPID4                                             /tmp/cc5Oa950.ltrans0.ltrans.o
                                                  build/obj/spi_lld.o (symbol from plugin)
                                                  /tmp/cc5Oa950.ltrans4.ltrans.o
                                                  build/obj/adis16265.o (symbol from plugin)
                                                  build/obj/tft_display.o (symbol from plugin)
SPID5                                             /tmp/cc5Oa950.ltrans0.ltrans.o
                                                  build/obj/spi_lld.o (symbol from plugin)
                                                  /tmp/cc5Oa950.ltrans11.ltrans.o
                                                  /tmp/cc5Oa950.ltrans4.ltrans.o
                                                  build/obj/main.o (symbol from plugin)
SVC_Handler                                       /tmp/cc5Oa950.ltrans1.ltrans.o
                                                  build/obj/chcore_v7m.o (symbol from plugin)
                                                  build/obj/vectors.o (symbol from plugin)
                                                  /tmp/cc5Oa950.ltrans3.ltrans.o
SysTick_Handler                                   /tmp/cc5Oa950.ltrans1.ltrans.o
                                                  build/obj/vectors.o (symbol from plugin)
                                                  /tmp/cc5Oa950.ltrans3.ltrans.o
SystemCoreClock                                   build/obj/hal_lld.o (symbol from plugin)
TPID_get                                          build/obj/imu_temp.o (symbol from plugin)
Temperature_thread.lto_priv.139                   /tmp/cc5Oa950.ltrans10.ltrans.o
                                                  /tmp/cc5Oa950.ltrans0.ltrans.o
UARTD1                                            /tmp/cc5Oa950.ltrans8.ltrans.o
                                                  build/obj/uart_lld.o (symbol from plugin)
                                                  /tmp/cc5Oa950.ltrans3.ltrans.o
                                                  /tmp/cc5Oa950.ltrans0.ltrans.o
                                                  build/obj/dbus.o (symbol from plugin)
UARTD3                                            /tmp/cc5Oa950.ltrans15.ltrans.o
                                                  build/obj/uart_lld.o (symbol from plugin)
                                                  /tmp/cc5Oa950.ltrans13.ltrans.o
                                                  /tmp/cc5Oa950.ltrans3.ltrans.o
                                                  /tmp/cc5Oa950.ltrans0.ltrans.o
                                                  build/obj/params.o (symbol from plugin)
USBD1                                             /tmp/cc5Oa950.ltrans0.ltrans.o
                                                  build/obj/usb_lld.o (symbol from plugin)
                                                  /tmp/cc5Oa950.ltrans14.ltrans.o
                                                  build/obj/usbcfg.o (symbol from plugin)
USBD2                                             /tmp/cc5Oa950.ltrans0.ltrans.o
                                                  build/obj/usb_lld.o (symbol from plugin)
                                                  /tmp/cc5Oa950.ltrans14.ltrans.o
UsageFault_Handler                                /tmp/cc5Oa950.ltrans1.ltrans.o
                                                  build/obj/vectors.o (symbol from plugin)
                                                  /tmp/cc5Oa950.ltrans3.ltrans.o
Vector100                                         /tmp/cc5Oa950.ltrans1.ltrans.o
                                                  build/obj/vectors.o (symbol from plugin)
                                                  /tmp/cc5Oa950.ltrans3.ltrans.o
Vector104                                         /tmp/cc5Oa950.ltrans14.ltrans.o
                                                  build/obj/sdc_lld.o (symbol from plugin)
                                                  build/obj/vectors.o (symbol from plugin)
                                                  /tmp/cc5Oa950.ltrans3.ltrans.o
Vector108                                         /tmp/cc5Oa950.ltrans1.ltrans.o
                                                  build/obj/vectors.o (symbol from plugin)
                                                  /tmp/cc5Oa950.ltrans3.ltrans.o
Vector10C                                         /tmp/cc5Oa950.ltrans1.ltrans.o
                                                  build/obj/vectors.o (symbol from plugin)
                                                  /tmp/cc5Oa950.ltrans3.ltrans.o
Vector110                                         /tmp/cc5Oa950.ltrans1.ltrans.o
                                                  build/obj/vectors.o (symbol from plugin)
                                                  /tmp/cc5Oa950.ltrans3.ltrans.o
Vector114                                         /tmp/cc5Oa950.ltrans1.ltrans.o
                                                  build/obj/vectors.o (symbol from plugin)
                                                  /tmp/cc5Oa950.ltrans3.ltrans.o
Vector118                                         /tmp/cc5Oa950.ltrans1.ltrans.o
                                                  build/obj/vectors.o (symbol from plugin)
                                                  /tmp/cc5Oa950.ltrans3.ltrans.o
Vector11C                                         /tmp/cc5Oa950.ltrans1.ltrans.o
                                                  build/obj/vectors.o (symbol from plugin)
                                                  /tmp/cc5Oa950.ltrans3.ltrans.o
Vector120                                         /tmp/cc5Oa950.ltrans6.ltrans.o
                                                  build/obj/stm32_dma.o (symbol from plugin)
                                                  build/obj/vectors.o (symbol from plugin)
                                                  /tmp/cc5Oa950.ltrans3.ltrans.o
Vector124                                         /tmp/cc5Oa950.ltrans6.ltrans.o
                                                  build/obj/stm32_dma.o (symbol from plugin)
                                                  build/obj/vectors.o (symbol from plugin)
                                                  /tmp/cc5Oa950.ltrans3.ltrans.o
Vector128                                         /tmp/cc5Oa950.ltrans6.ltrans.o
                                                  build/obj/stm32_dma.o (symbol from plugin)
                                                  build/obj/vectors.o (symbol from plugin)
                                                  /tmp/cc5Oa950.ltrans3.ltrans.o
Vector12C                                         /tmp/cc5Oa950.ltrans6.ltrans.o
                                                  build/obj/stm32_dma.o (symbol from plugin)
                                                  build/obj/vectors.o (symbol from plugin)
                                                  /tmp/cc5Oa950.ltrans3.ltrans.o
Vector130                                         /tmp/cc5Oa950.ltrans6.ltrans.o
                                                  build/obj/stm32_dma.o (symbol from plugin)
                                                  build/obj/vectors.o (symbol from plugin)
                                                  /tmp/cc5Oa950.ltrans3.ltrans.o
Vector134                                         /tmp/cc5Oa950.ltrans1.ltrans.o
                                                  build/obj/vectors.o (symbol from plugin)
                                                  /tmp/cc5Oa950.ltrans3.ltrans.o
Vector138                                         /tmp/cc5Oa950.ltrans7.ltrans.o
                                                  build/obj/ext_lld_isr.o (symbol from plugin)
                                                  build/obj/vectors.o (symbol from plugin)
                                                  /tmp/cc5Oa950.ltrans3.ltrans.o
Vector13C                                         /tmp/cc5Oa950.ltrans7.ltrans.o
                                                  build/obj/can_lld.o (symbol from plugin)
                                                  build/obj/vectors.o (symbol from plugin)
                                                  /tmp/cc5Oa950.ltrans3.ltrans.o
Vector140                                         /tmp/cc5Oa950.ltrans7.ltrans.o
                                                  build/obj/can_lld.o (symbol from plugin)
                                                  build/obj/vectors.o (symbol from plugin)
                                                  /tmp/cc5Oa950.ltrans3.ltrans.o
Vector144                                         /tmp/cc5Oa950.ltrans7.ltrans.o
                                                  build/obj/can_lld.o (symbol from plugin)
                                                  build/obj/vectors.o (symbol from plugin)
                                                  /tmp/cc5Oa950.ltrans3.ltrans.o
Vector148                                         /tmp/cc5Oa950.ltrans7.ltrans.o
                                                  build/obj/can_lld.o (symbol from plugin)
                                                  build/obj/vectors.o (symbol from plugin)
                                                  /tmp/cc5Oa950.ltrans3.ltrans.o
Vector14C                                         /tmp/cc5Oa950.ltrans14.ltrans.o
                                                  build/obj/usb_lld.o (symbol from plugin)
                                                  build/obj/vectors.o (symbol from plugin)
                                                  /tmp/cc5Oa950.ltrans3.ltrans.o
Vector150                                         /tmp/cc5Oa950.ltrans6.ltrans.o
                                                  build/obj/stm32_dma.o (symbol from plugin)
                                                  build/obj/vectors.o (symbol from plugin)
                                                  /tmp/cc5Oa950.ltrans3.ltrans.o
Vector154                                         /tmp/cc5Oa950.ltrans6.ltrans.o
                                                  build/obj/stm32_dma.o (symbol from plugin)
                                                  build/obj/vectors.o (symbol from plugin)
                                                  /tmp/cc5Oa950.ltrans3.ltrans.o
Vector158                                         /tmp/cc5Oa950.ltrans6.ltrans.o
                                                  build/obj/stm32_dma.o (symbol from plugin)
                                                  build/obj/vectors.o (symbol from plugin)
                                                  /tmp/cc5Oa950.ltrans3.ltrans.o
Vector15C                                         /tmp/cc5Oa950.ltrans1.ltrans.o
                                                  build/obj/vectors.o (symbol from plugin)
                                                  /tmp/cc5Oa950.ltrans3.ltrans.o
Vector160                                         /tmp/cc5Oa950.ltrans1.ltrans.o
                                                  build/obj/vectors.o (symbol from plugin)
                                                  /tmp/cc5Oa950.ltrans3.ltrans.o
Vector164                                         /tmp/cc5Oa950.ltrans1.ltrans.o
                                                  build/obj/vectors.o (symbol from plugin)
                                                  /tmp/cc5Oa950.ltrans3.ltrans.o
Vector168                                         /tmp/cc5Oa950.ltrans1.ltrans.o
                                                  build/obj/vectors.o (symbol from plugin)
                                                  /tmp/cc5Oa950.ltrans3.ltrans.o
Vector16C                                         /tmp/cc5Oa950.ltrans1.ltrans.o
                                                  build/obj/vectors.o (symbol from plugin)
                                                  /tmp/cc5Oa950.ltrans3.ltrans.o
Vector170                                         /tmp/cc5Oa950.ltrans7.ltrans.o
                                                  build/obj/ext_lld_isr.o (symbol from plugin)
                                                  build/obj/vectors.o (symbol from plugin)
                                                  /tmp/cc5Oa950.ltrans3.ltrans.o
Vector174                                         /tmp/cc5Oa950.ltrans14.ltrans.o
                                                  build/obj/usb_lld.o (symbol from plugin)
                                                  build/obj/vectors.o (symbol from plugin)
                                                  /tmp/cc5Oa950.ltrans3.ltrans.o
Vector178                                         /tmp/cc5Oa950.ltrans1.ltrans.o
                                                  build/obj/vectors.o (symbol from plugin)
                                                  /tmp/cc5Oa950.ltrans3.ltrans.o
Vector17C                                         /tmp/cc5Oa950.ltrans1.ltrans.o
                                                  build/obj/vectors.o (symbol from plugin)
                                                  /tmp/cc5Oa950.ltrans3.ltrans.o
Vector180                                         /tmp/cc5Oa950.ltrans1.ltrans.o
                                                  build/obj/vectors.o (symbol from plugin)
                                                  /tmp/cc5Oa950.ltrans3.ltrans.o
Vector184                                         /tmp/cc5Oa950.ltrans1.ltrans.o
                                                  build/obj/vectors.o (symbol from plugin)
                                                  /tmp/cc5Oa950.ltrans3.ltrans.o
Vector188                                         /tmp/cc5Oa950.ltrans1.ltrans.o
                                                  build/obj/vectors.o (symbol from plugin)
                                                  /tmp/cc5Oa950.ltrans3.ltrans.o
Vector18C                                         /tmp/cc5Oa950.ltrans1.ltrans.o
                                                  build/obj/vectors.o (symbol from plugin)
                                                  /tmp/cc5Oa950.ltrans3.ltrans.o
Vector190                                         /tmp/cc5Oa950.ltrans1.ltrans.o
                                                  build/obj/vectors.o (symbol from plugin)
                                                  /tmp/cc5Oa950.ltrans3.ltrans.o
Vector194                                         /tmp/cc5Oa950.ltrans1.ltrans.o
                                                  build/obj/vectors.o (symbol from plugin)
                                                  /tmp/cc5Oa950.ltrans3.ltrans.o
Vector198                                         /tmp/cc5Oa950.ltrans1.ltrans.o
                                                  build/obj/vectors.o (symbol from plugin)
                                                  /tmp/cc5Oa950.ltrans3.ltrans.o
Vector19C                                         /tmp/cc5Oa950.ltrans1.ltrans.o
                                                  build/obj/vectors.o (symbol from plugin)
                                                  /tmp/cc5Oa950.ltrans3.ltrans.o
Vector1A0                                         /tmp/cc5Oa950.ltrans1.ltrans.o
                                                  build/obj/vectors.o (symbol from plugin)
                                                  /tmp/cc5Oa950.ltrans3.ltrans.o
Vector1A4                                         /tmp/cc5Oa950.ltrans1.ltrans.o
                                                  build/obj/vectors.o (symbol from plugin)
                                                  /tmp/cc5Oa950.ltrans3.ltrans.o
Vector1A8                                         /tmp/cc5Oa950.ltrans1.ltrans.o
                                                  build/obj/vectors.o (symbol from plugin)
                                                  /tmp/cc5Oa950.ltrans3.ltrans.o
Vector1AC                                         /tmp/cc5Oa950.ltrans1.ltrans.o
                                                  build/obj/vectors.o (symbol from plugin)
                                                  /tmp/cc5Oa950.ltrans3.ltrans.o
Vector1B0                                         /tmp/cc5Oa950.ltrans1.ltrans.o
                                                  build/obj/vectors.o (symbol from plugin)
                                                  /tmp/cc5Oa950.ltrans3.ltrans.o
Vector1B4                                         /tmp/cc5Oa950.ltrans1.ltrans.o
                                                  build/obj/vectors.o (symbol from plugin)
                                                  /tmp/cc5Oa950.ltrans3.ltrans.o
Vector1B8                                         /tmp/cc5Oa950.ltrans1.ltrans.o
                                                  build/obj/vectors.o (symbol from plugin)
                                                  /tmp/cc5Oa950.ltrans3.ltrans.o
Vector1BC                                         /tmp/cc5Oa950.ltrans1.ltrans.o
                                                  build/obj/vectors.o (symbol from plugin)
                                                  /tmp/cc5Oa950.ltrans3.ltrans.o
Vector1C                                          /tmp/cc5Oa950.ltrans1.ltrans.o
                                                  build/obj/vectors.o (symbol from plugin)
                                                  /tmp/cc5Oa950.ltrans3.ltrans.o
Vector20                                          /tmp/cc5Oa950.ltrans1.ltrans.o
                                                  build/obj/vectors.o (symbol from plugin)
                                                  /tmp/cc5Oa950.ltrans3.ltrans.o
Vector24                                          /tmp/cc5Oa950.ltrans1.ltrans.o
                                                  build/obj/vectors.o (symbol from plugin)
                                                  /tmp/cc5Oa950.ltrans3.ltrans.o
Vector28                                          /tmp/cc5Oa950.ltrans1.ltrans.o
                                                  build/obj/vectors.o (symbol from plugin)
                                                  /tmp/cc5Oa950.ltrans3.ltrans.o
Vector34                                          /tmp/cc5Oa950.ltrans1.ltrans.o
                                                  build/obj/vectors.o (symbol from plugin)
                                                  /tmp/cc5Oa950.ltrans3.ltrans.o
Vector40                                          /tmp/cc5Oa950.ltrans1.ltrans.o
                                                  build/obj/vectors.o (symbol from plugin)
                                                  /tmp/cc5Oa950.ltrans3.ltrans.o
Vector44                                          /tmp/cc5Oa950.ltrans7.ltrans.o
                                                  build/obj/ext_lld_isr.o (symbol from plugin)
                                                  build/obj/vectors.o (symbol from plugin)
                                                  /tmp/cc5Oa950.ltrans3.ltrans.o
Vector48                                          /tmp/cc5Oa950.ltrans7.ltrans.o
                                                  build/obj/ext_lld_isr.o (symbol from plugin)
                                                  build/obj/vectors.o (symbol from plugin)
                                                  /tmp/cc5Oa950.ltrans3.ltrans.o
Vector4C                                          /tmp/cc5Oa950.ltrans7.ltrans.o
                                                  build/obj/ext_lld_isr.o (symbol from plugin)
                                                  build/obj/vectors.o (symbol from plugin)
                                                  /tmp/cc5Oa950.ltrans3.ltrans.o
Vector50                                          /tmp/cc5Oa950.ltrans1.ltrans.o
                                                  build/obj/vectors.o (symbol from plugin)
                                                  /tmp/cc5Oa950.ltrans3.ltrans.o
Vector54                                          /tmp/cc5Oa950.ltrans1.ltrans.o
                                                  build/obj/vectors.o (symbol from plugin)
                                                  /tmp/cc5Oa950.ltrans3.ltrans.o
Vector58                                          /tmp/cc5Oa950.ltrans7.ltrans.o
                                                  build/obj/ext_lld_isr.o (symbol from plugin)
                                                  build/obj/vectors.o (symbol from plugin)
                                                  /tmp/cc5Oa950.ltrans3.ltrans.o
Vector5C                                          /tmp/cc5Oa950.ltrans7.ltrans.o
                                                  build/obj/ext_lld_isr.o (symbol from plugin)
                                                  build/obj/vectors.o (symbol from plugin)
                                                  /tmp/cc5Oa950.ltrans3.ltrans.o
Vector60                                          /tmp/cc5Oa950.ltrans7.ltrans.o
                                                  build/obj/ext_lld_isr.o (symbol from plugin)
                                                  build/obj/vectors.o (symbol from plugin)
                                                  /tmp/cc5Oa950.ltrans3.ltrans.o
Vector64                                          /tmp/cc5Oa950.ltrans7.ltrans.o
                                                  build/obj/ext_lld_isr.o (symbol from plugin)
                                                  build/obj/vectors.o (symbol from plugin)
                                                  /tmp/cc5Oa950.ltrans3.ltrans.o
Vector68                                          /tmp/cc5Oa950.ltrans7.ltrans.o
                                                  build/obj/ext_lld_isr.o (symbol from plugin)
                                                  build/obj/vectors.o (symbol from plugin)
                                                  /tmp/cc5Oa950.ltrans3.ltrans.o
Vector6C                                          /tmp/cc5Oa950.ltrans6.ltrans.o
                                                  build/obj/stm32_dma.o (symbol from plugin)
                                                  build/obj/vectors.o (symbol from plugin)
                                                  /tmp/cc5Oa950.ltrans3.ltrans.o
Vector70                                          /tmp/cc5Oa950.ltrans6.ltrans.o
                                                  build/obj/stm32_dma.o (symbol from plugin)
                                                  build/obj/vectors.o (symbol from plugin)
                                                  /tmp/cc5Oa950.ltrans3.ltrans.o
Vector74                                          /tmp/cc5Oa950.ltrans6.ltrans.o
                                                  build/obj/stm32_dma.o (symbol from plugin)
                                                  build/obj/vectors.o (symbol from plugin)
                                                  /tmp/cc5Oa950.ltrans3.ltrans.o
Vector78                                          /tmp/cc5Oa950.ltrans6.ltrans.o
                                                  build/obj/stm32_dma.o (symbol from plugin)
                                                  build/obj/vectors.o (symbol from plugin)
                                                  /tmp/cc5Oa950.ltrans3.ltrans.o
Vector7C                                          /tmp/cc5Oa950.ltrans6.ltrans.o
                                                  build/obj/stm32_dma.o (symbol from plugin)
                                                  build/obj/vectors.o (symbol from plugin)
                                                  /tmp/cc5Oa950.ltrans3.ltrans.o
Vector80                                          /tmp/cc5Oa950.ltrans6.ltrans.o
                                                  build/obj/stm32_dma.o (symbol from plugin)
                                                  build/obj/vectors.o (symbol from plugin)
                                                  /tmp/cc5Oa950.ltrans3.ltrans.o
Vector84                                          /tmp/cc5Oa950.ltrans6.ltrans.o
                                                  build/obj/stm32_dma.o (symbol from plugin)
                                                  build/obj/vectors.o (symbol from plugin)
                                                  /tmp/cc5Oa950.ltrans3.ltrans.o
Vector88                                          /tmp/cc5Oa950.ltrans1.ltrans.o
                                                  build/obj/vectors.o (symbol from plugin)
                                                  /tmp/cc5Oa950.ltrans3.ltrans.o
Vector8C                                          /tmp/cc5Oa950.ltrans7.ltrans.o
                                                  build/obj/can_lld.o (symbol from plugin)
                                                  build/obj/vectors.o (symbol from plugin)
                                                  /tmp/cc5Oa950.ltrans3.ltrans.o
Vector90                                          /tmp/cc5Oa950.ltrans7.ltrans.o
                                                  build/obj/can_lld.o (symbol from plugin)
                                                  build/obj/vectors.o (symbol from plugin)
                                                  /tmp/cc5Oa950.ltrans3.ltrans.o
Vector94                                          /tmp/cc5Oa950.ltrans7.ltrans.o
                                                  build/obj/can_lld.o (symbol from plugin)
                                                  build/obj/vectors.o (symbol from plugin)
                                                  /tmp/cc5Oa950.ltrans3.ltrans.o
Vector98                                          /tmp/cc5Oa950.ltrans7.ltrans.o
                                                  build/obj/can_lld.o (symbol from plugin)
                                                  build/obj/vectors.o (symbol from plugin)
                                                  /tmp/cc5Oa950.ltrans3.ltrans.o
Vector9C                                          /tmp/cc5Oa950.ltrans7.ltrans.o
                                                  build/obj/ext_lld_isr.o (symbol from plugin)
                                                  build/obj/vectors.o (symbol from plugin)
                                                  /tmp/cc5Oa950.ltrans3.ltrans.o
VectorA0                                          /tmp/cc5Oa950.ltrans1.ltrans.o
                                                  build/obj/vectors.o (symbol from plugin)
                                                  /tmp/cc5Oa950.ltrans3.ltrans.o
VectorA4                                          /tmp/cc5Oa950.ltrans14.ltrans.o
                                                  build/obj/pwm_lld.o (symbol from plugin)
                                                  build/obj/vectors.o (symbol from plugin)
                                                  /tmp/cc5Oa950.ltrans3.ltrans.o
VectorA8                                          /tmp/cc5Oa950.ltrans1.ltrans.o
                                                  build/obj/vectors.o (symbol from plugin)
                                                  /tmp/cc5Oa950.ltrans3.ltrans.o
VectorAC                                          /tmp/cc5Oa950.ltrans14.ltrans.o
                                                  build/obj/pwm_lld.o (symbol from plugin)
                                                  build/obj/vectors.o (symbol from plugin)
                                                  /tmp/cc5Oa950.ltrans3.ltrans.o
VectorB0                                          /tmp/cc5Oa950.ltrans6.ltrans.o
                                                  build/obj/st_lld.o (symbol from plugin)
                                                  build/obj/vectors.o (symbol from plugin)
                                                  /tmp/cc5Oa950.ltrans3.ltrans.o
VectorB4                                          /tmp/cc5Oa950.ltrans14.ltrans.o
                                                  build/obj/pwm_lld.o (symbol from plugin)
                                                  build/obj/vectors.o (symbol from plugin)
                                                  /tmp/cc5Oa950.ltrans3.ltrans.o
VectorB8                                          /tmp/cc5Oa950.ltrans14.ltrans.o
                                                  build/obj/pwm_lld.o (symbol from plugin)
                                                  build/obj/vectors.o (symbol from plugin)
                                                  /tmp/cc5Oa950.ltrans3.ltrans.o
VectorBC                                          /tmp/cc5Oa950.ltrans1.ltrans.o
                                                  build/obj/vectors.o (symbol from plugin)
                                                  /tmp/cc5Oa950.ltrans3.ltrans.o
VectorC0                                          /tmp/cc5Oa950.ltrans1.ltrans.o
                                                  build/obj/vectors.o (symbol from plugin)
                                                  /tmp/cc5Oa950.ltrans3.ltrans.o
VectorC4                                          /tmp/cc5Oa950.ltrans1.ltrans.o
                                                  build/obj/vectors.o (symbol from plugin)
                                                  /tmp/cc5Oa950.ltrans3.ltrans.o
VectorC8                                          /tmp/cc5Oa950.ltrans1.ltrans.o
                                                  build/obj/vectors.o (symbol from plugin)
                                                  /tmp/cc5Oa950.ltrans3.ltrans.o
VectorCC                                          /tmp/cc5Oa950.ltrans1.ltrans.o
                                                  build/obj/vectors.o (symbol from plugin)
                                                  /tmp/cc5Oa950.ltrans3.ltrans.o
VectorD0                                          /tmp/cc5Oa950.ltrans1.ltrans.o
                                                  build/obj/vectors.o (symbol from plugin)
                                                  /tmp/cc5Oa950.ltrans3.ltrans.o
VectorD4                                          build/obj/uart_lld.o (symbol from plugin)
                                                  build/obj/vectors.o (symbol from plugin)
VectorD8                                          /tmp/cc5Oa950.ltrans1.ltrans.o
                                                  build/obj/vectors.o (symbol from plugin)
                                                  /tmp/cc5Oa950.ltrans3.ltrans.o
VectorDC                                          build/obj/uart_lld.o (symbol from plugin)
                                                  build/obj/vectors.o (symbol from plugin)
VectorE0                                          /tmp/cc5Oa950.ltrans7.ltrans.o
                                                  build/obj/ext_lld_isr.o (symbol from plugin)
                                                  build/obj/vectors.o (symbol from plugin)
                                                  /tmp/cc5Oa950.ltrans3.ltrans.o
VectorE4                                          /tmp/cc5Oa950.ltrans7.ltrans.o
                                                  build/obj/ext_lld_isr.o (symbol from plugin)
                                                  build/obj/vectors.o (symbol from plugin)
                                                  /tmp/cc5Oa950.ltrans3.ltrans.o
VectorE8                                          /tmp/cc5Oa950.ltrans7.ltrans.o
                                                  build/obj/ext_lld_isr.o (symbol from plugin)
                                                  build/obj/vectors.o (symbol from plugin)
                                                  /tmp/cc5Oa950.ltrans3.ltrans.o
VectorEC                                          build/obj/pwm_lld.o (symbol from plugin)
                                                  build/obj/vectors.o (symbol from plugin)
VectorF0                                          /tmp/cc5Oa950.ltrans14.ltrans.o
                                                  build/obj/pwm_lld.o (symbol from plugin)
                                                  build/obj/vectors.o (symbol from plugin)
                                                  /tmp/cc5Oa950.ltrans3.ltrans.o
VectorF4                                          /tmp/cc5Oa950.ltrans1.ltrans.o
                                                  build/obj/vectors.o (symbol from plugin)
                                                  /tmp/cc5Oa950.ltrans3.ltrans.o
VectorF8                                          /tmp/cc5Oa950.ltrans14.ltrans.o
                                                  build/obj/pwm_lld.o (symbol from plugin)
                                                  build/obj/vectors.o (symbol from plugin)
                                                  /tmp/cc5Oa950.ltrans3.ltrans.o
VectorFC                                          /tmp/cc5Oa950.ltrans6.ltrans.o
                                                  build/obj/stm32_dma.o (symbol from plugin)
                                                  build/obj/vectors.o (symbol from plugin)
                                                  /tmp/cc5Oa950.ltrans3.ltrans.o
__adddf3                                          /usr/lib/gcc/arm-none-eabi/4.9.3/armv7e-m/fpu/libgcc.a(_arm_addsubdf3.o)
__aeabi_d2f                                       /usr/lib/gcc/arm-none-eabi/4.9.3/armv7e-m/fpu/libgcc.a(_arm_truncdfsf2.o)
                                                  /usr/lib/gcc/arm-none-eabi/4.9.3/../../../arm-none-eabi/lib/armv7e-m/fpu/libm.a(lib_a-wf_sqrt.o)
                                                  /usr/lib/gcc/arm-none-eabi/4.9.3/../../../arm-none-eabi/lib/armv7e-m/fpu/libm.a(lib_a-wf_asin.o)
                                                  /tmp/cc5Oa950.ltrans11.ltrans.o
__aeabi_d2iz                                      /usr/lib/gcc/arm-none-eabi/4.9.3/armv7e-m/fpu/libgcc.a(_arm_fixdfsi.o)
                                                  /tmp/cc5Oa950.ltrans11.ltrans.o
__aeabi_dadd                                      /usr/lib/gcc/arm-none-eabi/4.9.3/armv7e-m/fpu/libgcc.a(_arm_addsubdf3.o)
__aeabi_ddiv                                      /usr/lib/gcc/arm-none-eabi/4.9.3/armv7e-m/fpu/libgcc.a(_arm_muldivdf3.o)
                                                  /usr/lib/gcc/arm-none-eabi/4.9.3/../../../arm-none-eabi/lib/armv7e-m/fpu/libm.a(lib_a-wf_sqrt.o)
__aeabi_dmul                                      /usr/lib/gcc/arm-none-eabi/4.9.3/armv7e-m/fpu/libgcc.a(_arm_muldivdf3.o)
                                                  /tmp/cc5Oa950.ltrans11.ltrans.o
__aeabi_drsub                                     /usr/lib/gcc/arm-none-eabi/4.9.3/armv7e-m/fpu/libgcc.a(_arm_addsubdf3.o)
__aeabi_dsub                                      /usr/lib/gcc/arm-none-eabi/4.9.3/armv7e-m/fpu/libgcc.a(_arm_addsubdf3.o)
                                                  /tmp/cc5Oa950.ltrans11.ltrans.o
__aeabi_f2d                                       /usr/lib/gcc/arm-none-eabi/4.9.3/armv7e-m/fpu/libgcc.a(_arm_addsubdf3.o)
                                                  /usr/lib/gcc/arm-none-eabi/4.9.3/../../../arm-none-eabi/lib/armv7e-m/fpu/libm.a(lib_a-wf_sqrt.o)
                                                  /usr/lib/gcc/arm-none-eabi/4.9.3/../../../arm-none-eabi/lib/armv7e-m/fpu/libm.a(lib_a-wf_asin.o)
                                                  /tmp/cc5Oa950.ltrans11.ltrans.o
                                                  /tmp/cc5Oa950.ltrans10.ltrans.o
                                                  /tmp/cc5Oa950.ltrans2.ltrans.o
__aeabi_i2d                                       /usr/lib/gcc/arm-none-eabi/4.9.3/armv7e-m/fpu/libgcc.a(_arm_addsubdf3.o)
                                                  /tmp/cc5Oa950.ltrans11.ltrans.o
__aeabi_l2d                                       /usr/lib/gcc/arm-none-eabi/4.9.3/armv7e-m/fpu/libgcc.a(_arm_addsubdf3.o)
__aeabi_ui2d                                      /usr/lib/gcc/arm-none-eabi/4.9.3/armv7e-m/fpu/libgcc.a(_arm_addsubdf3.o)
                                                  /tmp/cc5Oa950.ltrans11.ltrans.o
__aeabi_ul2d                                      /usr/lib/gcc/arm-none-eabi/4.9.3/armv7e-m/fpu/libgcc.a(_arm_addsubdf3.o)
__core_init                                       /tmp/cc5Oa950.ltrans1.ltrans.o
                                                  build/obj/crt1.o (symbol from plugin)
                                                  build/obj/crt0_v7m.o
__default_exit                                    /tmp/cc5Oa950.ltrans1.ltrans.o
                                                  build/obj/crt1.o (symbol from plugin)
                                                  build/obj/crt0_v7m.o
__divdf3                                          /usr/lib/gcc/arm-none-eabi/4.9.3/armv7e-m/fpu/libgcc.a(_arm_muldivdf3.o)
__early_init                                      /tmp/cc5Oa950.ltrans3.ltrans.o
                                                  build/obj/board.o (symbol from plugin)
                                                  build/obj/crt1.o (symbol from plugin)
                                                  build/obj/crt0_v7m.o
__errno                                           /usr/lib/gcc/arm-none-eabi/4.9.3/../../../arm-none-eabi/lib/armv7e-m/fpu/libg.a(lib_a-errno.o)
                                                  /usr/lib/gcc/arm-none-eabi/4.9.3/../../../arm-none-eabi/lib/armv7e-m/fpu/libm.a(lib_a-wf_sqrt.o)
                                                  /usr/lib/gcc/arm-none-eabi/4.9.3/../../../arm-none-eabi/lib/armv7e-m/fpu/libm.a(lib_a-wf_asin.o)
__extendsfdf2                                     /usr/lib/gcc/arm-none-eabi/4.9.3/armv7e-m/fpu/libgcc.a(_arm_addsubdf3.o)
__fdlib_version                                   /usr/lib/gcc/arm-none-eabi/4.9.3/../../../arm-none-eabi/lib/armv7e-m/fpu/libm.a(lib_a-s_lib_ver.o)
                                                  /usr/lib/gcc/arm-none-eabi/4.9.3/../../../arm-none-eabi/lib/armv7e-m/fpu/libm.a(lib_a-wf_sqrt.o)
                                                  /usr/lib/gcc/arm-none-eabi/4.9.3/../../../arm-none-eabi/lib/armv7e-m/fpu/libm.a(lib_a-wf_asin.o)
__fini_array_end                                  build/obj/crt0_v7m.o
__fini_array_start                                build/obj/crt0_v7m.o
__fixdfsi                                         /usr/lib/gcc/arm-none-eabi/4.9.3/armv7e-m/fpu/libgcc.a(_arm_fixdfsi.o)
__floatdidf                                       /usr/lib/gcc/arm-none-eabi/4.9.3/armv7e-m/fpu/libgcc.a(_arm_addsubdf3.o)
__floatsidf                                       /usr/lib/gcc/arm-none-eabi/4.9.3/armv7e-m/fpu/libgcc.a(_arm_addsubdf3.o)
__floatundidf                                     /usr/lib/gcc/arm-none-eabi/4.9.3/armv7e-m/fpu/libgcc.a(_arm_addsubdf3.o)
__floatunsidf                                     /usr/lib/gcc/arm-none-eabi/4.9.3/armv7e-m/fpu/libgcc.a(_arm_addsubdf3.o)
__fpclassifyf                                     /usr/lib/gcc/arm-none-eabi/4.9.3/../../../arm-none-eabi/lib/armv7e-m/fpu/libm.a(lib_a-sf_fpclassify.o)
                                                  /usr/lib/gcc/arm-none-eabi/4.9.3/../../../arm-none-eabi/lib/armv7e-m/fpu/libm.a(lib_a-wf_sqrt.o)
                                                  /usr/lib/gcc/arm-none-eabi/4.9.3/../../../arm-none-eabi/lib/armv7e-m/fpu/libm.a(lib_a-wf_asin.o)
                                                  /tmp/cc5Oa950.ltrans11.ltrans.o
                                                  /tmp/cc5Oa950.ltrans8.ltrans.o
                                                  build/obj/math_misc.o (symbol from plugin)
                                                  build/obj/attitude.o (symbol from plugin)
__func__.6022.lto_priv.86                         /tmp/cc5Oa950.ltrans15.ltrans.o
                                                  /tmp/cc5Oa950.ltrans2.ltrans.o
                                                  /tmp/cc5Oa950.ltrans1.ltrans.o
__func__.6022.lto_priv.87                         /tmp/cc5Oa950.ltrans15.ltrans.o
                                                  /tmp/cc5Oa950.ltrans13.ltrans.o
                                                  /tmp/cc5Oa950.ltrans8.ltrans.o
                                                  /tmp/cc5Oa950.ltrans0.ltrans.o
__func__.6022.lto_priv.93                         /tmp/cc5Oa950.ltrans9.ltrans.o
                                                  /tmp/cc5Oa950.ltrans8.ltrans.o
                                                  /tmp/cc5Oa950.ltrans5.ltrans.o
__func__.6022.lto_priv.94                         /tmp/cc5Oa950.ltrans9.ltrans.o
                                                  /tmp/cc5Oa950.ltrans8.ltrans.o
__func__.6208.lto_priv.211                        /tmp/cc5Oa950.ltrans4.ltrans.o
                                                  /tmp/cc5Oa950.ltrans1.ltrans.o
__func__.6336.lto_priv.135                        /tmp/cc5Oa950.ltrans0.ltrans.o
                                                  /tmp/cc5Oa950.ltrans16.ltrans.o
__func__.6336.lto_priv.208                        /tmp/cc5Oa950.ltrans5.ltrans.o
                                                  /tmp/cc5Oa950.ltrans1.ltrans.o
__func__.8371.lto_priv.143                        /tmp/cc5Oa950.ltrans8.ltrans.o
                                                  /tmp/cc5Oa950.ltrans0.ltrans.o
__func__.8403.lto_priv.127                        /tmp/cc5Oa950.ltrans13.ltrans.o
                                                  /tmp/cc5Oa950.ltrans8.ltrans.o
__func__.8726.lto_priv.193                        /tmp/cc5Oa950.ltrans7.ltrans.o
                                                  /tmp/cc5Oa950.ltrans4.ltrans.o
__heap_base__                                     /tmp/cc5Oa950.ltrans0.ltrans.o
                                                  build/obj/chmemcore.o (symbol from plugin)
__heap_end__                                      /tmp/cc5Oa950.ltrans0.ltrans.o
                                                  build/obj/chmemcore.o (symbol from plugin)
__ieee754_asinf                                   /usr/lib/gcc/arm-none-eabi/4.9.3/../../../arm-none-eabi/lib/armv7e-m/fpu/libm.a(lib_a-ef_asin.o)
                                                  /usr/lib/gcc/arm-none-eabi/4.9.3/../../../arm-none-eabi/lib/armv7e-m/fpu/libm.a(lib_a-wf_asin.o)
__ieee754_atan2f                                  /usr/lib/gcc/arm-none-eabi/4.9.3/../../../arm-none-eabi/lib/armv7e-m/fpu/libm.a(lib_a-ef_atan2.o)
                                                  /usr/lib/gcc/arm-none-eabi/4.9.3/../../../arm-none-eabi/lib/armv7e-m/fpu/libm.a(lib_a-wf_atan2.o)
__ieee754_rem_pio2f                               /usr/lib/gcc/arm-none-eabi/4.9.3/../../../arm-none-eabi/lib/armv7e-m/fpu/libm.a(lib_a-ef_rem_pio2.o)
                                                  /usr/lib/gcc/arm-none-eabi/4.9.3/../../../arm-none-eabi/lib/armv7e-m/fpu/libm.a(lib_a-sf_tan.o)
                                                  /usr/lib/gcc/arm-none-eabi/4.9.3/../../../arm-none-eabi/lib/armv7e-m/fpu/libm.a(lib_a-sf_sin.o)
                                                  /usr/lib/gcc/arm-none-eabi/4.9.3/../../../arm-none-eabi/lib/armv7e-m/fpu/libm.a(lib_a-sf_cos.o)
__ieee754_sqrtf                                   /usr/lib/gcc/arm-none-eabi/4.9.3/../../../arm-none-eabi/lib/armv7e-m/fpu/libm.a(lib_a-ef_sqrt.o)
                                                  /usr/lib/gcc/arm-none-eabi/4.9.3/../../../arm-none-eabi/lib/armv7e-m/fpu/libm.a(lib_a-ef_asin.o)
                                                  /usr/lib/gcc/arm-none-eabi/4.9.3/../../../arm-none-eabi/lib/armv7e-m/fpu/libm.a(lib_a-wf_sqrt.o)
__init_array_end                                  build/obj/crt0_v7m.o
__init_array_start                                build/obj/crt0_v7m.o
__init_ram_areas                                  /tmp/cc5Oa950.ltrans1.ltrans.o
                                                  build/obj/crt1.o (symbol from plugin)
                                                  build/obj/crt0_v7m.o
__kernel_cosf                                     /usr/lib/gcc/arm-none-eabi/4.9.3/../../../arm-none-eabi/lib/armv7e-m/fpu/libm.a(lib_a-kf_cos.o)
                                                  /usr/lib/gcc/arm-none-eabi/4.9.3/../../../arm-none-eabi/lib/armv7e-m/fpu/libm.a(lib_a-sf_sin.o)
                                                  /usr/lib/gcc/arm-none-eabi/4.9.3/../../../arm-none-eabi/lib/armv7e-m/fpu/libm.a(lib_a-sf_cos.o)
__kernel_rem_pio2f                                /usr/lib/gcc/arm-none-eabi/4.9.3/../../../arm-none-eabi/lib/armv7e-m/fpu/libm.a(lib_a-kf_rem_pio2.o)
                                                  /usr/lib/gcc/arm-none-eabi/4.9.3/../../../arm-none-eabi/lib/armv7e-m/fpu/libm.a(lib_a-ef_rem_pio2.o)
__kernel_sinf                                     /usr/lib/gcc/arm-none-eabi/4.9.3/../../../arm-none-eabi/lib/armv7e-m/fpu/libm.a(lib_a-kf_sin.o)
                                                  /usr/lib/gcc/arm-none-eabi/4.9.3/../../../arm-none-eabi/lib/armv7e-m/fpu/libm.a(lib_a-sf_sin.o)
                                                  /usr/lib/gcc/arm-none-eabi/4.9.3/../../../arm-none-eabi/lib/armv7e-m/fpu/libm.a(lib_a-sf_cos.o)
__kernel_tanf                                     /usr/lib/gcc/arm-none-eabi/4.9.3/../../../arm-none-eabi/lib/armv7e-m/fpu/libm.a(lib_a-kf_tan.o)
                                                  /usr/lib/gcc/arm-none-eabi/4.9.3/../../../arm-none-eabi/lib/armv7e-m/fpu/libm.a(lib_a-sf_tan.o)
__late_init                                       /tmp/cc5Oa950.ltrans1.ltrans.o
                                                  build/obj/crt1.o (symbol from plugin)
                                                  build/obj/crt0_v7m.o
__main_stack_base__                               build/obj/crt0_v7m.o
__main_stack_end__                                /tmp/cc5Oa950.ltrans3.ltrans.o
                                                  build/obj/vectors.o (symbol from plugin)
                                                  build/obj/crt0_v7m.o
__main_thread_stack_base__                        /tmp/cc5Oa950.ltrans0.ltrans.o
                                                  build/obj/chsys.o (symbol from plugin)
__muldf3                                          /usr/lib/gcc/arm-none-eabi/4.9.3/armv7e-m/fpu/libgcc.a(_arm_muldivdf3.o)
__process_stack_base__                            build/obj/crt0_v7m.o
__process_stack_end__                             build/obj/crt0_v7m.o
__ram0_clear__                                    /tmp/cc5Oa950.ltrans1.ltrans.o
                                                  build/obj/crt1.o (symbol from plugin)
__ram0_init__                                     /tmp/cc5Oa950.ltrans1.ltrans.o
                                                  build/obj/crt1.o (symbol from plugin)
__ram0_init_text__                                /tmp/cc5Oa950.ltrans1.ltrans.o
                                                  build/obj/crt1.o (symbol from plugin)
__ram0_noinit__                                   /tmp/cc5Oa950.ltrans1.ltrans.o
                                                  build/obj/crt1.o (symbol from plugin)
__ram1_clear__                                    /tmp/cc5Oa950.ltrans1.ltrans.o
                                                  build/obj/crt1.o (symbol from plugin)
__ram1_init__                                     /tmp/cc5Oa950.ltrans1.ltrans.o
                                                  build/obj/crt1.o (symbol from plugin)
__ram1_init_text__                                /tmp/cc5Oa950.ltrans1.ltrans.o
                                                  build/obj/crt1.o (symbol from plugin)
__ram1_noinit__                                   /tmp/cc5Oa950.ltrans1.ltrans.o
                                                  build/obj/crt1.o (symbol from plugin)
__ram2_clear__                                    /tmp/cc5Oa950.ltrans1.ltrans.o
                                                  build/obj/crt1.o (symbol from plugin)
__ram2_init__                                     /tmp/cc5Oa950.ltrans1.ltrans.o
                                                  build/obj/crt1.o (symbol from plugin)
__ram2_init_text__                                /tmp/cc5Oa950.ltrans1.ltrans.o
                                                  build/obj/crt1.o (symbol from plugin)
__ram2_noinit__                                   /tmp/cc5Oa950.ltrans1.ltrans.o
                                                  build/obj/crt1.o (symbol from plugin)
__ram3_clear__                                    /tmp/cc5Oa950.ltrans1.ltrans.o
                                                  build/obj/crt1.o (symbol from plugin)
__ram3_init__                                     /tmp/cc5Oa950.ltrans1.ltrans.o
                                                  build/obj/crt1.o (symbol from plugin)
__ram3_init_text__                                /tmp/cc5Oa950.ltrans1.ltrans.o
                                                  build/obj/crt1.o (symbol from plugin)
__ram3_noinit__                                   /tmp/cc5Oa950.ltrans1.ltrans.o
                                                  build/obj/crt1.o (symbol from plugin)
__ram4_clear__                                    /tmp/cc5Oa950.ltrans1.ltrans.o
                                                  build/obj/crt1.o (symbol from plugin)
__ram4_init__                                     /tmp/cc5Oa950.ltrans1.ltrans.o
                                                  build/obj/crt1.o (symbol from plugin)
__ram4_init_text__                                /tmp/cc5Oa950.ltrans1.ltrans.o
                                                  build/obj/crt1.o (symbol from plugin)
__ram4_noinit__                                   /tmp/cc5Oa950.ltrans1.ltrans.o
                                                  build/obj/crt1.o (symbol from plugin)
__ram5_clear__                                    /tmp/cc5Oa950.ltrans1.ltrans.o
                                                  build/obj/crt1.o (symbol from plugin)
__ram5_init__                                     /tmp/cc5Oa950.ltrans1.ltrans.o
                                                  build/obj/crt1.o (symbol from plugin)
__ram5_init_text__                                /tmp/cc5Oa950.ltrans1.ltrans.o
                                                  build/obj/crt1.o (symbol from plugin)
__ram5_noinit__                                   /tmp/cc5Oa950.ltrans1.ltrans.o
                                                  build/obj/crt1.o (symbol from plugin)
__ram6_clear__                                    /tmp/cc5Oa950.ltrans1.ltrans.o
                                                  build/obj/crt1.o (symbol from plugin)
__ram6_init__                                     /tmp/cc5Oa950.ltrans1.ltrans.o
                                                  build/obj/crt1.o (symbol from plugin)
__ram6_init_text__                                /tmp/cc5Oa950.ltrans1.ltrans.o
                                                  build/obj/crt1.o (symbol from plugin)
__ram6_noinit__                                   /tmp/cc5Oa950.ltrans1.ltrans.o
                                                  build/obj/crt1.o (symbol from plugin)
__ram7_clear__                                    /tmp/cc5Oa950.ltrans1.ltrans.o
                                                  build/obj/crt1.o (symbol from plugin)
__ram7_init__                                     /tmp/cc5Oa950.ltrans1.ltrans.o
                                                  build/obj/crt1.o (symbol from plugin)
__ram7_init_text__                                /tmp/cc5Oa950.ltrans1.ltrans.o
                                                  build/obj/crt1.o (symbol from plugin)
__ram7_noinit__                                   /tmp/cc5Oa950.ltrans1.ltrans.o
                                                  build/obj/crt1.o (symbol from plugin)
__subdf3                                          /usr/lib/gcc/arm-none-eabi/4.9.3/armv7e-m/fpu/libgcc.a(_arm_addsubdf3.o)
__truncdfsf2                                      /usr/lib/gcc/arm-none-eabi/4.9.3/armv7e-m/fpu/libgcc.a(_arm_truncdfsf2.o)
_bss_end                                          build/obj/crt0_v7m.o
_bss_start                                        build/obj/crt0_v7m.o
_close_r                                          /tmp/cc5Oa950.ltrans12.ltrans.o
                                                  build/obj/syscalls.o (symbol from plugin)
_core_init                                        build/obj/chmemcore.o (symbol from plugin)
                                                  build/obj/chsys.o (symbol from plugin)
_data_end                                         build/obj/crt0_v7m.o
_data_start                                       build/obj/crt0_v7m.o
_dbg_check_disable                                build/obj/chdebug.o (symbol from plugin)
_dbg_check_enable                                 build/obj/chdebug.o (symbol from plugin)
                                                  build/obj/chsys.o (symbol from plugin)
_dbg_check_enter_isr                              /tmp/cc5Oa950.ltrans1.ltrans.o
                                                  build/obj/chdebug.o (symbol from plugin)
                                                  /tmp/cc5Oa950.ltrans14.ltrans.o
                                                  /tmp/cc5Oa950.ltrans7.ltrans.o
                                                  /tmp/cc5Oa950.ltrans6.ltrans.o
                                                  /tmp/cc5Oa950.ltrans3.ltrans.o
                                                  build/obj/uart_lld.o (symbol from plugin)
                                                  build/obj/pwm_lld.o (symbol from plugin)
                                                  build/obj/sdc_lld.o (symbol from plugin)
                                                  build/obj/usb_lld.o (symbol from plugin)
                                                  build/obj/ext_lld_isr.o (symbol from plugin)
                                                  build/obj/can_lld.o (symbol from plugin)
                                                  build/obj/st_lld.o (symbol from plugin)
                                                  build/obj/stm32_dma.o (symbol from plugin)
_dbg_check_leave_isr                              /tmp/cc5Oa950.ltrans1.ltrans.o
                                                  build/obj/chdebug.o (symbol from plugin)
                                                  /tmp/cc5Oa950.ltrans14.ltrans.o
                                                  /tmp/cc5Oa950.ltrans7.ltrans.o
                                                  /tmp/cc5Oa950.ltrans6.ltrans.o
                                                  /tmp/cc5Oa950.ltrans3.ltrans.o
                                                  build/obj/uart_lld.o (symbol from plugin)
                                                  build/obj/pwm_lld.o (symbol from plugin)
                                                  build/obj/sdc_lld.o (symbol from plugin)
                                                  build/obj/usb_lld.o (symbol from plugin)
                                                  build/obj/ext_lld_isr.o (symbol from plugin)
                                                  build/obj/can_lld.o (symbol from plugin)
                                                  build/obj/st_lld.o (symbol from plugin)
                                                  build/obj/stm32_dma.o (symbol from plugin)
_dbg_check_lock                                   /tmp/cc5Oa950.ltrans1.ltrans.o
                                                  build/obj/chdebug.o (symbol from plugin)
                                                  /tmp/cc5Oa950.ltrans16.ltrans.o
                                                  /tmp/cc5Oa950.ltrans15.ltrans.o
                                                  /tmp/cc5Oa950.ltrans14.ltrans.o
                                                  /tmp/cc5Oa950.ltrans13.ltrans.o
                                                  /tmp/cc5Oa950.ltrans12.ltrans.o
                                                  /tmp/cc5Oa950.ltrans11.ltrans.o
                                                  /tmp/cc5Oa950.ltrans10.ltrans.o
                                                  /tmp/cc5Oa950.ltrans9.ltrans.o
                                                  /tmp/cc5Oa950.ltrans8.ltrans.o
                                                  /tmp/cc5Oa950.ltrans5.ltrans.o
                                                  /tmp/cc5Oa950.ltrans4.ltrans.o
                                                  /tmp/cc5Oa950.ltrans2.ltrans.o
                                                  /tmp/cc5Oa950.ltrans0.ltrans.o
                                                  build/obj/exti.o (symbol from plugin)
                                                  build/obj/params.o (symbol from plugin)
                                                  build/obj/gimbal.o (symbol from plugin)
                                                  build/obj/dbus.o (symbol from plugin)
                                                  build/obj/canBusProcess.o (symbol from plugin)
                                                  build/obj/adis16265.o (symbol from plugin)
                                                  build/obj/main.o (symbol from plugin)
                                                  build/obj/evtimer.o (symbol from plugin)
                                                  build/obj/shell.o (symbol from plugin)
                                                  build/obj/sdc_lld.o (symbol from plugin)
                                                  build/obj/usb_lld.o (symbol from plugin)
                                                  build/obj/usb.o (symbol from plugin)
                                                  build/obj/uart.o (symbol from plugin)
                                                  build/obj/spi.o (symbol from plugin)
                                                  build/obj/serial_usb.o (symbol from plugin)
                                                  build/obj/sdc.o (symbol from plugin)
                                                  build/obj/pwm.o (symbol from plugin)
                                                  build/obj/ext.o (symbol from plugin)
                                                  build/obj/can.o (symbol from plugin)
                                                  build/obj/hal_buffers.o (symbol from plugin)
                                                  build/obj/chmempools.o (symbol from plugin)
                                                  build/obj/chmemcore.o (symbol from plugin)
                                                  build/obj/chqueues.o (symbol from plugin)
                                                  build/obj/chmboxes.o (symbol from plugin)
                                                  build/obj/chmsg.o (symbol from plugin)
                                                  build/obj/chevents.o (symbol from plugin)
                                                  build/obj/chcond.o (symbol from plugin)
                                                  build/obj/chmtx.o (symbol from plugin)
                                                  build/obj/chsem.o (symbol from plugin)
                                                  build/obj/chregistry.o (symbol from plugin)
                                                  build/obj/chdynamic.o (symbol from plugin)
                                                  build/obj/chthreads.o (symbol from plugin)
                                                  build/obj/chsys.o (symbol from plugin)
                                                  build/obj/chcoreasm_v7m.o
_dbg_check_lock_from_isr                          /tmp/cc5Oa950.ltrans1.ltrans.o
                                                  build/obj/chdebug.o (symbol from plugin)
                                                  /tmp/cc5Oa950.ltrans14.ltrans.o
                                                  /tmp/cc5Oa950.ltrans13.ltrans.o
                                                  /tmp/cc5Oa950.ltrans10.ltrans.o
                                                  /tmp/cc5Oa950.ltrans8.ltrans.o
                                                  /tmp/cc5Oa950.ltrans7.ltrans.o
                                                  /tmp/cc5Oa950.ltrans6.ltrans.o
                                                  /tmp/cc5Oa950.ltrans4.ltrans.o
                                                  /tmp/cc5Oa950.ltrans3.ltrans.o
                                                  build/obj/exti.o (symbol from plugin)
                                                  build/obj/usbcfg.o (symbol from plugin)
                                                  build/obj/params.o (symbol from plugin)
                                                  build/obj/dbus.o (symbol from plugin)
                                                  build/obj/evtimer.o (symbol from plugin)
                                                  build/obj/uart_lld.o (symbol from plugin)
                                                  build/obj/spi_lld.o (symbol from plugin)
                                                  build/obj/sdc_lld.o (symbol from plugin)
                                                  build/obj/usb_lld.o (symbol from plugin)
                                                  build/obj/can_lld.o (symbol from plugin)
                                                  build/obj/st_lld.o (symbol from plugin)
                                                  build/obj/usb.o (symbol from plugin)
                                                  build/obj/serial_usb.o (symbol from plugin)
                                                  build/obj/chschd.o (symbol from plugin)
                                                  build/obj/chsys.o (symbol from plugin)
_dbg_check_suspend                                build/obj/chdebug.o (symbol from plugin)
_dbg_check_unlock                                 /tmp/cc5Oa950.ltrans1.ltrans.o
                                                  build/obj/chdebug.o (symbol from plugin)
                                                  /tmp/cc5Oa950.ltrans16.ltrans.o
                                                  /tmp/cc5Oa950.ltrans15.ltrans.o
                                                  /tmp/cc5Oa950.ltrans14.ltrans.o
                                                  /tmp/cc5Oa950.ltrans13.ltrans.o
                                                  /tmp/cc5Oa950.ltrans12.ltrans.o
                                                  /tmp/cc5Oa950.ltrans11.ltrans.o
                                                  /tmp/cc5Oa950.ltrans10.ltrans.o
                                                  /tmp/cc5Oa950.ltrans9.ltrans.o
                                                  /tmp/cc5Oa950.ltrans8.ltrans.o
                                                  /tmp/cc5Oa950.ltrans5.ltrans.o
                                                  /tmp/cc5Oa950.ltrans4.ltrans.o
                                                  /tmp/cc5Oa950.ltrans2.ltrans.o
                                                  /tmp/cc5Oa950.ltrans0.ltrans.o
                                                  build/obj/exti.o (symbol from plugin)
                                                  build/obj/params.o (symbol from plugin)
                                                  build/obj/gimbal.o (symbol from plugin)
                                                  build/obj/dbus.o (symbol from plugin)
                                                  build/obj/canBusProcess.o (symbol from plugin)
                                                  build/obj/adis16265.o (symbol from plugin)
                                                  build/obj/main.o (symbol from plugin)
                                                  build/obj/evtimer.o (symbol from plugin)
                                                  build/obj/shell.o (symbol from plugin)
                                                  build/obj/sdc_lld.o (symbol from plugin)
                                                  build/obj/usb_lld.o (symbol from plugin)
                                                  build/obj/usb.o (symbol from plugin)
                                                  build/obj/uart.o (symbol from plugin)
                                                  build/obj/spi.o (symbol from plugin)
                                                  build/obj/serial_usb.o (symbol from plugin)
                                                  build/obj/sdc.o (symbol from plugin)
                                                  build/obj/pwm.o (symbol from plugin)
                                                  build/obj/ext.o (symbol from plugin)
                                                  build/obj/can.o (symbol from plugin)
                                                  build/obj/hal_buffers.o (symbol from plugin)
                                                  build/obj/chmempools.o (symbol from plugin)
                                                  build/obj/chmemcore.o (symbol from plugin)
                                                  build/obj/chqueues.o (symbol from plugin)
                                                  build/obj/chmboxes.o (symbol from plugin)
                                                  build/obj/chmsg.o (symbol from plugin)
                                                  build/obj/chevents.o (symbol from plugin)
                                                  build/obj/chcond.o (symbol from plugin)
                                                  build/obj/chmtx.o (symbol from plugin)
                                                  build/obj/chsem.o (symbol from plugin)
                                                  build/obj/chregistry.o (symbol from plugin)
                                                  build/obj/chdynamic.o (symbol from plugin)
                                                  build/obj/chthreads.o (symbol from plugin)
                                                  build/obj/chsys.o (symbol from plugin)
                                                  build/obj/chcoreasm_v7m.o
_dbg_check_unlock_from_isr                        /tmp/cc5Oa950.ltrans1.ltrans.o
                                                  build/obj/chdebug.o (symbol from plugin)
                                                  /tmp/cc5Oa950.ltrans14.ltrans.o
                                                  /tmp/cc5Oa950.ltrans13.ltrans.o
                                                  /tmp/cc5Oa950.ltrans10.ltrans.o
                                                  /tmp/cc5Oa950.ltrans8.ltrans.o
                                                  /tmp/cc5Oa950.ltrans7.ltrans.o
                                                  /tmp/cc5Oa950.ltrans6.ltrans.o
                                                  /tmp/cc5Oa950.ltrans4.ltrans.o
                                                  /tmp/cc5Oa950.ltrans3.ltrans.o
                                                  build/obj/exti.o (symbol from plugin)
                                                  build/obj/usbcfg.o (symbol from plugin)
                                                  build/obj/params.o (symbol from plugin)
                                                  build/obj/dbus.o (symbol from plugin)
                                                  build/obj/evtimer.o (symbol from plugin)
                                                  build/obj/uart_lld.o (symbol from plugin)
                                                  build/obj/spi_lld.o (symbol from plugin)
                                                  build/obj/sdc_lld.o (symbol from plugin)
                                                  build/obj/usb_lld.o (symbol from plugin)
                                                  build/obj/can_lld.o (symbol from plugin)
                                                  build/obj/st_lld.o (symbol from plugin)
                                                  build/obj/usb.o (symbol from plugin)
                                                  build/obj/serial_usb.o (symbol from plugin)
                                                  build/obj/chschd.o (symbol from plugin)
                                                  build/obj/chsys.o (symbol from plugin)
_dbg_trace                                        /tmp/cc5Oa950.ltrans1.ltrans.o
                                                  build/obj/chdebug.o (symbol from plugin)
                                                  /tmp/cc5Oa950.ltrans15.ltrans.o
                                                  build/obj/chschd.o (symbol from plugin)
_dbg_trace_init                                   build/obj/chdebug.o (symbol from plugin)
                                                  build/obj/chsys.o (symbol from plugin)
_fstat_r                                          /tmp/cc5Oa950.ltrans12.ltrans.o
                                                  build/obj/syscalls.o (symbol from plugin)
_global_impure_ptr                                /usr/lib/gcc/arm-none-eabi/4.9.3/../../../arm-none-eabi/lib/armv7e-m/fpu/libg.a(lib_a-impure.o)
_heap_init                                        build/obj/chheap.o (symbol from plugin)
                                                  build/obj/chsys.o (symbol from plugin)
_idle_thread.lto_priv.163                         /tmp/cc5Oa950.ltrans1.ltrans.o
                                                  /tmp/cc5Oa950.ltrans0.ltrans.o
_impure_ptr                                       /usr/lib/gcc/arm-none-eabi/4.9.3/../../../arm-none-eabi/lib/armv7e-m/fpu/libg.a(lib_a-impure.o)
                                                  /usr/lib/gcc/arm-none-eabi/4.9.3/../../../arm-none-eabi/lib/armv7e-m/fpu/libg.a(lib_a-errno.o)
_isatty_r                                         /tmp/cc5Oa950.ltrans12.ltrans.o
                                                  build/obj/syscalls.o (symbol from plugin)
_lseek_r                                          /tmp/cc5Oa950.ltrans12.ltrans.o
                                                  build/obj/syscalls.o (symbol from plugin)
_mmcsd_get_capacity                               build/obj/hal_mmcsd.o (symbol from plugin)
                                                  build/obj/sdc.o (symbol from plugin)
_mmcsd_get_capacity_ext                           build/obj/hal_mmcsd.o (symbol from plugin)
                                                  build/obj/sdc.o (symbol from plugin)
_mmcsd_get_slice                                  build/obj/hal_mmcsd.o (symbol from plugin)
                                                  build/obj/sdc.o (symbol from plugin)
_mmcsd_unpack_csd_mmc                             build/obj/hal_mmcsd.o (symbol from plugin)
_mmcsd_unpack_csd_v10                             build/obj/hal_mmcsd.o (symbol from plugin)
_mmcsd_unpack_csd_v20                             build/obj/hal_mmcsd.o (symbol from plugin)
_mmcsd_unpack_mmc_cid                             build/obj/hal_mmcsd.o (symbol from plugin)
_mmcsd_unpack_sdc_cid                             build/obj/hal_mmcsd.o (symbol from plugin)
_pal_lld_init                                     build/obj/pal_lld.o (symbol from plugin)
                                                  build/obj/hal.o (symbol from plugin)
_pal_lld_setgroupmode                             build/obj/pal_lld.o (symbol from plugin)
                                                  build/obj/pal.o (symbol from plugin)
_pitch_atti.lto_priv.151                          /tmp/cc5Oa950.ltrans13.ltrans.o
                                                  /tmp/cc5Oa950.ltrans0.ltrans.o
_pitch_atti_name                                  build/obj/gimbal.o (symbol from plugin)
_pitch_pos.lto_priv.147                           /tmp/cc5Oa950.ltrans13.ltrans.o
                                                  /tmp/cc5Oa950.ltrans0.ltrans.o
_pitch_vel.lto_priv.149                           /tmp/cc5Oa950.ltrans13.ltrans.o
                                                  /tmp/cc5Oa950.ltrans0.ltrans.o
_pitch_vel_name                                   build/obj/gimbal.o (symbol from plugin)
_port_exit_from_isr                               build/obj/chcoreasm_v7m.o
                                                  /tmp/cc5Oa950.ltrans1.ltrans.o
                                                  build/obj/chcore_v7m.o (symbol from plugin)
_port_irq_epilogue                                /tmp/cc5Oa950.ltrans1.ltrans.o
                                                  build/obj/chcore_v7m.o (symbol from plugin)
                                                  /tmp/cc5Oa950.ltrans14.ltrans.o
                                                  /tmp/cc5Oa950.ltrans7.ltrans.o
                                                  /tmp/cc5Oa950.ltrans6.ltrans.o
                                                  /tmp/cc5Oa950.ltrans3.ltrans.o
                                                  build/obj/uart_lld.o (symbol from plugin)
                                                  build/obj/pwm_lld.o (symbol from plugin)
                                                  build/obj/sdc_lld.o (symbol from plugin)
                                                  build/obj/usb_lld.o (symbol from plugin)
                                                  build/obj/ext_lld_isr.o (symbol from plugin)
                                                  build/obj/can_lld.o (symbol from plugin)
                                                  build/obj/st_lld.o (symbol from plugin)
                                                  build/obj/stm32_dma.o (symbol from plugin)
_port_switch                                      build/obj/chcoreasm_v7m.o
                                                  /tmp/cc5Oa950.ltrans15.ltrans.o
                                                  /tmp/cc5Oa950.ltrans1.ltrans.o
                                                  build/obj/chschd.o (symbol from plugin)
_port_switch_from_isr                             build/obj/chcoreasm_v7m.o
                                                  /tmp/cc5Oa950.ltrans1.ltrans.o
                                                  build/obj/chcore_v7m.o (symbol from plugin)
_port_thread_start                                build/obj/chcoreasm_v7m.o
                                                  /tmp/cc5Oa950.ltrans1.ltrans.o
                                                  build/obj/chthreads.o (symbol from plugin)
_read_r                                           /tmp/cc5Oa950.ltrans12.ltrans.o
                                                  build/obj/syscalls.o (symbol from plugin)
_sbrk_r                                           /tmp/cc5Oa950.ltrans12.ltrans.o
                                                  build/obj/syscalls.o (symbol from plugin)
_scheduler_init                                   build/obj/chschd.o (symbol from plugin)
                                                  build/obj/chsys.o (symbol from plugin)
_sdc_wait_for_transfer_state                      /tmp/cc5Oa950.ltrans5.ltrans.o
                                                  build/obj/sdc.o (symbol from plugin)
                                                  /tmp/cc5Oa950.ltrans16.ltrans.o
                                                  /tmp/cc5Oa950.ltrans14.ltrans.o
                                                  build/obj/sdc_lld.o (symbol from plugin)
_stats_ctxswc                                     build/obj/chstats.o (symbol from plugin)
                                                  build/obj/chschd.o (symbol from plugin)
_stats_increase_irq                               /tmp/cc5Oa950.ltrans1.ltrans.o
                                                  build/obj/chstats.o (symbol from plugin)
                                                  /tmp/cc5Oa950.ltrans14.ltrans.o
                                                  /tmp/cc5Oa950.ltrans7.ltrans.o
                                                  /tmp/cc5Oa950.ltrans6.ltrans.o
                                                  /tmp/cc5Oa950.ltrans3.ltrans.o
                                                  build/obj/uart_lld.o (symbol from plugin)
                                                  build/obj/pwm_lld.o (symbol from plugin)
                                                  build/obj/sdc_lld.o (symbol from plugin)
                                                  build/obj/usb_lld.o (symbol from plugin)
                                                  build/obj/ext_lld_isr.o (symbol from plugin)
                                                  build/obj/can_lld.o (symbol from plugin)
                                                  build/obj/st_lld.o (symbol from plugin)
                                                  build/obj/stm32_dma.o (symbol from plugin)
_stats_init                                       build/obj/chstats.o (symbol from plugin)
                                                  build/obj/chsys.o (symbol from plugin)
_stats_start_measure_crit_isr                     /tmp/cc5Oa950.ltrans1.ltrans.o
                                                  build/obj/chstats.o (symbol from plugin)
                                                  /tmp/cc5Oa950.ltrans14.ltrans.o
                                                  /tmp/cc5Oa950.ltrans13.ltrans.o
                                                  /tmp/cc5Oa950.ltrans10.ltrans.o
                                                  /tmp/cc5Oa950.ltrans8.ltrans.o
                                                  /tmp/cc5Oa950.ltrans7.ltrans.o
                                                  /tmp/cc5Oa950.ltrans6.ltrans.o
                                                  /tmp/cc5Oa950.ltrans4.ltrans.o
                                                  /tmp/cc5Oa950.ltrans3.ltrans.o
                                                  build/obj/exti.o (symbol from plugin)
                                                  build/obj/usbcfg.o (symbol from plugin)
                                                  build/obj/params.o (symbol from plugin)
                                                  build/obj/dbus.o (symbol from plugin)
                                                  build/obj/evtimer.o (symbol from plugin)
                                                  build/obj/uart_lld.o (symbol from plugin)
                                                  build/obj/spi_lld.o (symbol from plugin)
                                                  build/obj/sdc_lld.o (symbol from plugin)
                                                  build/obj/usb_lld.o (symbol from plugin)
                                                  build/obj/can_lld.o (symbol from plugin)
                                                  build/obj/st_lld.o (symbol from plugin)
                                                  build/obj/usb.o (symbol from plugin)
                                                  build/obj/serial_usb.o (symbol from plugin)
                                                  build/obj/chschd.o (symbol from plugin)
                                                  build/obj/chsys.o (symbol from plugin)
_stats_start_measure_crit_thd                     /tmp/cc5Oa950.ltrans1.ltrans.o
                                                  build/obj/chstats.o (symbol from plugin)
                                                  /tmp/cc5Oa950.ltrans16.ltrans.o
                                                  /tmp/cc5Oa950.ltrans15.ltrans.o
                                                  /tmp/cc5Oa950.ltrans14.ltrans.o
                                                  /tmp/cc5Oa950.ltrans13.ltrans.o
                                                  /tmp/cc5Oa950.ltrans12.ltrans.o
                                                  /tmp/cc5Oa950.ltrans11.ltrans.o
                                                  /tmp/cc5Oa950.ltrans10.ltrans.o
                                                  /tmp/cc5Oa950.ltrans9.ltrans.o
                                                  /tmp/cc5Oa950.ltrans8.ltrans.o
                                                  /tmp/cc5Oa950.ltrans5.ltrans.o
                                                  /tmp/cc5Oa950.ltrans4.ltrans.o
                                                  /tmp/cc5Oa950.ltrans2.ltrans.o
                                                  /tmp/cc5Oa950.ltrans0.ltrans.o
                                                  build/obj/exti.o (symbol from plugin)
                                                  build/obj/params.o (symbol from plugin)
                                                  build/obj/gimbal.o (symbol from plugin)
                                                  build/obj/dbus.o (symbol from plugin)
                                                  build/obj/canBusProcess.o (symbol from plugin)
                                                  build/obj/adis16265.o (symbol from plugin)
                                                  build/obj/main.o (symbol from plugin)
                                                  build/obj/evtimer.o (symbol from plugin)
                                                  build/obj/shell.o (symbol from plugin)
                                                  build/obj/sdc_lld.o (symbol from plugin)
                                                  build/obj/usb_lld.o (symbol from plugin)
                                                  build/obj/usb.o (symbol from plugin)
                                                  build/obj/uart.o (symbol from plugin)
                                                  build/obj/spi.o (symbol from plugin)
                                                  build/obj/serial_usb.o (symbol from plugin)
                                                  build/obj/sdc.o (symbol from plugin)
                                                  build/obj/pwm.o (symbol from plugin)
                                                  build/obj/ext.o (symbol from plugin)
                                                  build/obj/can.o (symbol from plugin)
                                                  build/obj/hal_buffers.o (symbol from plugin)
                                                  build/obj/chmempools.o (symbol from plugin)
                                                  build/obj/chmemcore.o (symbol from plugin)
                                                  build/obj/chqueues.o (symbol from plugin)
                                                  build/obj/chmboxes.o (symbol from plugin)
                                                  build/obj/chmsg.o (symbol from plugin)
                                                  build/obj/chevents.o (symbol from plugin)
                                                  build/obj/chcond.o (symbol from plugin)
                                                  build/obj/chmtx.o (symbol from plugin)
                                                  build/obj/chsem.o (symbol from plugin)
                                                  build/obj/chregistry.o (symbol from plugin)
                                                  build/obj/chdynamic.o (symbol from plugin)
                                                  build/obj/chthreads.o (symbol from plugin)
                                                  build/obj/chsys.o (symbol from plugin)
                                                  build/obj/chcoreasm_v7m.o
_stats_stop_measure_crit_isr                      /tmp/cc5Oa950.ltrans1.ltrans.o
                                                  build/obj/chstats.o (symbol from plugin)
                                                  /tmp/cc5Oa950.ltrans14.ltrans.o
                                                  /tmp/cc5Oa950.ltrans13.ltrans.o
                                                  /tmp/cc5Oa950.ltrans10.ltrans.o
                                                  /tmp/cc5Oa950.ltrans8.ltrans.o
                                                  /tmp/cc5Oa950.ltrans7.ltrans.o
                                                  /tmp/cc5Oa950.ltrans6.ltrans.o
                                                  /tmp/cc5Oa950.ltrans4.ltrans.o
                                                  /tmp/cc5Oa950.ltrans3.ltrans.o
                                                  build/obj/exti.o (symbol from plugin)
                                                  build/obj/usbcfg.o (symbol from plugin)
                                                  build/obj/params.o (symbol from plugin)
                                                  build/obj/dbus.o (symbol from plugin)
                                                  build/obj/evtimer.o (symbol from plugin)
                                                  build/obj/uart_lld.o (symbol from plugin)
                                                  build/obj/spi_lld.o (symbol from plugin)
                                                  build/obj/sdc_lld.o (symbol from plugin)
                                                  build/obj/usb_lld.o (symbol from plugin)
                                                  build/obj/can_lld.o (symbol from plugin)
                                                  build/obj/st_lld.o (symbol from plugin)
                                                  build/obj/usb.o (symbol from plugin)
                                                  build/obj/serial_usb.o (symbol from plugin)
                                                  build/obj/chschd.o (symbol from plugin)
                                                  build/obj/chsys.o (symbol from plugin)
_stats_stop_measure_crit_thd                      /tmp/cc5Oa950.ltrans1.ltrans.o
                                                  build/obj/chstats.o (symbol from plugin)
                                                  /tmp/cc5Oa950.ltrans16.ltrans.o
                                                  /tmp/cc5Oa950.ltrans15.ltrans.o
                                                  /tmp/cc5Oa950.ltrans14.ltrans.o
                                                  /tmp/cc5Oa950.ltrans13.ltrans.o
                                                  /tmp/cc5Oa950.ltrans12.ltrans.o
                                                  /tmp/cc5Oa950.ltrans11.ltrans.o
                                                  /tmp/cc5Oa950.ltrans10.ltrans.o
                                                  /tmp/cc5Oa950.ltrans9.ltrans.o
                                                  /tmp/cc5Oa950.ltrans8.ltrans.o
                                                  /tmp/cc5Oa950.ltrans5.ltrans.o
                                                  /tmp/cc5Oa950.ltrans4.ltrans.o
                                                  /tmp/cc5Oa950.ltrans2.ltrans.o
                                                  /tmp/cc5Oa950.ltrans0.ltrans.o
                                                  build/obj/exti.o (symbol from plugin)
                                                  build/obj/params.o (symbol from plugin)
                                                  build/obj/gimbal.o (symbol from plugin)
                                                  build/obj/dbus.o (symbol from plugin)
                                                  build/obj/canBusProcess.o (symbol from plugin)
                                                  build/obj/adis16265.o (symbol from plugin)
                                                  build/obj/main.o (symbol from plugin)
                                                  build/obj/evtimer.o (symbol from plugin)
                                                  build/obj/shell.o (symbol from plugin)
                                                  build/obj/sdc_lld.o (symbol from plugin)
                                                  build/obj/usb_lld.o (symbol from plugin)
                                                  build/obj/usb.o (symbol from plugin)
                                                  build/obj/uart.o (symbol from plugin)
                                                  build/obj/spi.o (symbol from plugin)
                                                  build/obj/serial_usb.o (symbol from plugin)
                                                  build/obj/sdc.o (symbol from plugin)
                                                  build/obj/pwm.o (symbol from plugin)
                                                  build/obj/ext.o (symbol from plugin)
                                                  build/obj/can.o (symbol from plugin)
                                                  build/obj/hal_buffers.o (symbol from plugin)
                                                  build/obj/chmempools.o (symbol from plugin)
                                                  build/obj/chmemcore.o (symbol from plugin)
                                                  build/obj/chqueues.o (symbol from plugin)
                                                  build/obj/chmboxes.o (symbol from plugin)
                                                  build/obj/chmsg.o (symbol from plugin)
                                                  build/obj/chevents.o (symbol from plugin)
                                                  build/obj/chcond.o (symbol from plugin)
                                                  build/obj/chmtx.o (symbol from plugin)
                                                  build/obj/chsem.o (symbol from plugin)
                                                  build/obj/chregistry.o (symbol from plugin)
                                                  build/obj/chdynamic.o (symbol from plugin)
                                                  build/obj/chthreads.o (symbol from plugin)
                                                  build/obj/chsys.o (symbol from plugin)
                                                  build/obj/chcoreasm_v7m.o
_stm32_dma_streams                                build/obj/stm32_dma.o (symbol from plugin)
                                                  build/obj/uart_lld.o (symbol from plugin)
                                                  build/obj/spi_lld.o (symbol from plugin)
                                                  build/obj/sdc_lld.o (symbol from plugin)
_strtok.constprop.19                              /tmp/cc5Oa950.ltrans9.ltrans.o
                                                  /tmp/cc5Oa950.ltrans12.ltrans.o
_textdata_start                                   build/obj/crt0_v7m.o
_thread_init                                      build/obj/chthreads.o (symbol from plugin)
                                                  build/obj/chsys.o (symbol from plugin)
_thread_memfill                                   build/obj/chthreads.o (symbol from plugin)
                                                  build/obj/usb_lld.o (symbol from plugin)
                                                  build/obj/chdynamic.o (symbol from plugin)
_tm_init                                          build/obj/chtm.o (symbol from plugin)
                                                  build/obj/chsys.o (symbol from plugin)
_unhandled_exception                              build/obj/vectors.o (symbol from plugin)
_usb_ep0in                                        /tmp/cc5Oa950.ltrans6.ltrans.o
                                                  build/obj/usb.o (symbol from plugin)
                                                  /tmp/cc5Oa950.ltrans7.ltrans.o
                                                  build/obj/usb_lld.o (symbol from plugin)
_usb_ep0out                                       /tmp/cc5Oa950.ltrans6.ltrans.o
                                                  build/obj/usb.o (symbol from plugin)
                                                  /tmp/cc5Oa950.ltrans7.ltrans.o
                                                  build/obj/usb_lld.o (symbol from plugin)
_usb_ep0setup                                     /tmp/cc5Oa950.ltrans6.ltrans.o
                                                  build/obj/usb.o (symbol from plugin)
                                                  /tmp/cc5Oa950.ltrans7.ltrans.o
                                                  build/obj/usb_lld.o (symbol from plugin)
_usb_reset                                        build/obj/usb.o (symbol from plugin)
                                                  build/obj/usb_lld.o (symbol from plugin)
_usb_suspend                                      build/obj/usb.o (symbol from plugin)
                                                  build/obj/usb_lld.o (symbol from plugin)
_usb_wakeup                                       build/obj/usb.o (symbol from plugin)
                                                  build/obj/usb_lld.o (symbol from plugin)
_vectors                                          /tmp/cc5Oa950.ltrans3.ltrans.o
                                                  build/obj/vectors.o (symbol from plugin)
_vt_init                                          build/obj/chvt.o (symbol from plugin)
                                                  build/obj/chsys.o (symbol from plugin)
_write_r                                          /tmp/cc5Oa950.ltrans12.ltrans.o
                                                  build/obj/syscalls.o (symbol from plugin)
_yaw_atti.lto_priv.150                            /tmp/cc5Oa950.ltrans13.ltrans.o
                                                  /tmp/cc5Oa950.ltrans0.ltrans.o
_yaw_atti_name                                    build/obj/gimbal.o (symbol from plugin)
_yaw_pos.lto_priv.146                             /tmp/cc5Oa950.ltrans13.ltrans.o
                                                  /tmp/cc5Oa950.ltrans0.ltrans.o
_yaw_vel.lto_priv.148                             /tmp/cc5Oa950.ltrans13.ltrans.o
                                                  /tmp/cc5Oa950.ltrans0.ltrans.o
_yaw_vel_name                                     build/obj/gimbal.o (symbol from plugin)
arm_pid_init_f32                                  build/obj/arm_pid_init_f32.o (symbol from plugin)
                                                  build/obj/gimbal_sys_iden.o (symbol from plugin)
asinf                                             /usr/lib/gcc/arm-none-eabi/4.9.3/../../../arm-none-eabi/lib/armv7e-m/fpu/libm.a(lib_a-wf_asin.o)
                                                  /tmp/cc5Oa950.ltrans11.ltrans.o
atan2f                                            /usr/lib/gcc/arm-none-eabi/4.9.3/../../../arm-none-eabi/lib/armv7e-m/fpu/libm.a(lib_a-wf_atan2.o)
                                                  /tmp/cc5Oa950.ltrans11.ltrans.o
atanf                                             /usr/lib/gcc/arm-none-eabi/4.9.3/../../../arm-none-eabi/lib/armv7e-m/fpu/libm.a(lib_a-sf_atan.o)
                                                  /usr/lib/gcc/arm-none-eabi/4.9.3/../../../arm-none-eabi/lib/armv7e-m/fpu/libm.a(lib_a-ef_atan2.o)
attitude_imu_init                                 build/obj/attitude.o (symbol from plugin)
                                                  build/obj/gimbal.o (symbol from plugin)
attitude_update                                   build/obj/attitude.o (symbol from plugin)
                                                  build/obj/main.o (symbol from plugin)
bg_color                                          build/obj/tft_display.o (symbol from plugin)
bg_color_prev                                     build/obj/tft_display.o (symbol from plugin)
boardInit                                         build/obj/board.o (symbol from plugin)
                                                  build/obj/hal.o (symbol from plugin)
button_thread_ref                                 build/obj/exti.o (symbol from plugin)
calibrate_accelerometer                           build/obj/calibrate_sensor.o (symbol from plugin)
                                                  build/obj/shellcfg.o (symbol from plugin)
calibrate_adi                                     /tmp/cc5Oa950.ltrans10.ltrans.o
                                                  build/obj/calibrate_sensor.o (symbol from plugin)
                                                  /tmp/cc5Oa950.ltrans2.ltrans.o
                                                  build/obj/shellcfg.o (symbol from plugin)
calibrate_gyroscope                               build/obj/calibrate_sensor.o (symbol from plugin)
                                                  build/obj/shellcfg.o (symbol from plugin)
canInit                                           build/obj/can.o (symbol from plugin)
                                                  build/obj/hal.o (symbol from plugin)
canObjectInit                                     build/obj/can.o (symbol from plugin)
                                                  build/obj/can_lld.o (symbol from plugin)
canReceive                                        build/obj/can.o (symbol from plugin)
                                                  build/obj/canBusProcess.o (symbol from plugin)
canSTM32SetFilters                                build/obj/can_lld.o (symbol from plugin)
                                                  build/obj/canBusProcess.o (symbol from plugin)
canSleep                                          build/obj/can.o (symbol from plugin)
canStart                                          build/obj/can.o (symbol from plugin)
                                                  build/obj/canBusProcess.o (symbol from plugin)
canStop                                           build/obj/can.o (symbol from plugin)
canTransmit                                       build/obj/can.o (symbol from plugin)
                                                  build/obj/canBusProcess.o (symbol from plugin)
canTryReceiveI                                    build/obj/can.o (symbol from plugin)
canTryTransmitI                                   build/obj/can.o (symbol from plugin)
canWakeup                                         build/obj/can.o (symbol from plugin)
can_getChassisMotor                               build/obj/canBusProcess.o (symbol from plugin)
can_getGimbalMotor                                build/obj/canBusProcess.o (symbol from plugin)
                                                  build/obj/gimbal_sys_iden.o (symbol from plugin)
                                                  build/obj/gimbal.o (symbol from plugin)
can_lld_init                                      build/obj/can_lld.o (symbol from plugin)
                                                  build/obj/can.o (symbol from plugin)
can_lld_is_rx_nonempty                            build/obj/can_lld.o (symbol from plugin)
                                                  build/obj/can.o (symbol from plugin)
can_lld_is_tx_empty                               build/obj/can_lld.o (symbol from plugin)
                                                  build/obj/can.o (symbol from plugin)
can_lld_receive                                   build/obj/can_lld.o (symbol from plugin)
                                                  build/obj/can.o (symbol from plugin)
can_lld_rx0_handler.lto_priv.190                  /tmp/cc5Oa950.ltrans6.ltrans.o
                                                  /tmp/cc5Oa950.ltrans7.ltrans.o
can_lld_set_filters.constprop.73                  /tmp/cc5Oa950.ltrans15.ltrans.o
                                                  /tmp/cc5Oa950.ltrans0.ltrans.o
can_lld_sleep                                     build/obj/can_lld.o (symbol from plugin)
                                                  build/obj/can.o (symbol from plugin)
can_lld_start                                     /tmp/cc5Oa950.ltrans7.ltrans.o
                                                  build/obj/can_lld.o (symbol from plugin)
                                                  /tmp/cc5Oa950.ltrans0.ltrans.o
                                                  build/obj/can.o (symbol from plugin)
can_lld_stop                                      build/obj/can_lld.o (symbol from plugin)
                                                  build/obj/can.o (symbol from plugin)
can_lld_transmit                                  build/obj/can_lld.o (symbol from plugin)
                                                  build/obj/can.o (symbol from plugin)
can_lld_tx_handler.lto_priv.191                   /tmp/cc5Oa950.ltrans6.ltrans.o
                                                  /tmp/cc5Oa950.ltrans7.ltrans.o
can_lld_wakeup                                    build/obj/can_lld.o (symbol from plugin)
                                                  build/obj/can.o (symbol from plugin)
can_motorSetCurrent                               build/obj/canBusProcess.o (symbol from plugin)
                                                  build/obj/exti.o (symbol from plugin)
                                                  build/obj/gimbal_sys_iden.o (symbol from plugin)
                                                  build/obj/gimbal.o (symbol from plugin)
can_motorSetCurrent.constprop.2                   /tmp/cc5Oa950.ltrans9.ltrans.o
                                                  /tmp/cc5Oa950.ltrans13.ltrans.o
                                                  /tmp/cc5Oa950.ltrans10.ltrans.o
can_processInit                                   build/obj/canBusProcess.o (symbol from plugin)
                                                  build/obj/main.o (symbol from plugin)
can_rx.lto_priv.158                               /tmp/cc5Oa950.ltrans8.ltrans.o
                                                  /tmp/cc5Oa950.ltrans0.ltrans.o
ch                                                /tmp/cc5Oa950.ltrans15.ltrans.o
                                                  build/obj/chschd.o (symbol from plugin)
                                                  /tmp/cc5Oa950.ltrans16.ltrans.o
                                                  /tmp/cc5Oa950.ltrans14.ltrans.o
                                                  /tmp/cc5Oa950.ltrans13.ltrans.o
                                                  /tmp/cc5Oa950.ltrans12.ltrans.o
                                                  /tmp/cc5Oa950.ltrans11.ltrans.o
                                                  /tmp/cc5Oa950.ltrans10.ltrans.o
                                                  /tmp/cc5Oa950.ltrans9.ltrans.o
                                                  /tmp/cc5Oa950.ltrans8.ltrans.o
                                                  /tmp/cc5Oa950.ltrans7.ltrans.o
                                                  /tmp/cc5Oa950.ltrans6.ltrans.o
                                                  /tmp/cc5Oa950.ltrans5.ltrans.o
                                                  /tmp/cc5Oa950.ltrans4.ltrans.o
                                                  /tmp/cc5Oa950.ltrans3.ltrans.o
                                                  /tmp/cc5Oa950.ltrans2.ltrans.o
                                                  /tmp/cc5Oa950.ltrans1.ltrans.o
                                                  /tmp/cc5Oa950.ltrans0.ltrans.o
                                                  build/obj/imu_temp.o (symbol from plugin)
                                                  build/obj/exti.o (symbol from plugin)
                                                  build/obj/shoot_pwm.o (symbol from plugin)
                                                  build/obj/gimbal_sys_iden.o (symbol from plugin)
                                                  build/obj/params.o (symbol from plugin)
                                                  build/obj/gimbal.o (symbol from plugin)
                                                  build/obj/dbus.o (symbol from plugin)
                                                  build/obj/canBusProcess.o (symbol from plugin)
                                                  build/obj/adis16265.o (symbol from plugin)
                                                  build/obj/tft_display.o (symbol from plugin)
                                                  build/obj/shellcfg.o (symbol from plugin)
                                                  build/obj/main.o (symbol from plugin)
                                                  build/obj/evtimer.o (symbol from plugin)
                                                  build/obj/shell.o (symbol from plugin)
                                                  build/obj/sdc_lld.o (symbol from plugin)
                                                  build/obj/usb_lld.o (symbol from plugin)
                                                  build/obj/usb.o (symbol from plugin)
                                                  build/obj/uart.o (symbol from plugin)
                                                  build/obj/spi.o (symbol from plugin)
                                                  build/obj/serial_usb.o (symbol from plugin)
                                                  build/obj/sdc.o (symbol from plugin)
                                                  build/obj/pwm.o (symbol from plugin)
                                                  build/obj/ext.o (symbol from plugin)
                                                  build/obj/can.o (symbol from plugin)
                                                  build/obj/hal_buffers.o (symbol from plugin)
                                                  build/obj/chmempools.o (symbol from plugin)
                                                  build/obj/chmemcore.o (symbol from plugin)
                                                  build/obj/chqueues.o (symbol from plugin)
                                                  build/obj/chmboxes.o (symbol from plugin)
                                                  build/obj/chmsg.o (symbol from plugin)
                                                  build/obj/chevents.o (symbol from plugin)
                                                  build/obj/chcond.o (symbol from plugin)
                                                  build/obj/chmtx.o (symbol from plugin)
                                                  build/obj/chsem.o (symbol from plugin)
                                                  build/obj/chregistry.o (symbol from plugin)
                                                  build/obj/chdynamic.o (symbol from plugin)
                                                  build/obj/chstats.o (symbol from plugin)
                                                  build/obj/chtm.o (symbol from plugin)
                                                  build/obj/chthreads.o (symbol from plugin)
                                                  build/obj/chvt.o (symbol from plugin)
                                                  build/obj/chdebug.o (symbol from plugin)
                                                  build/obj/chsys.o (symbol from plugin)
chCondBroadcast                                   build/obj/chcond.o (symbol from plugin)
chCondBroadcastI                                  build/obj/chcond.o (symbol from plugin)
chCondObjectInit                                  build/obj/chcond.o (symbol from plugin)
chCondSignal                                      build/obj/chcond.o (symbol from plugin)
chCondSignalI                                     build/obj/chcond.o (symbol from plugin)
chCondWait                                        build/obj/chcond.o (symbol from plugin)
chCondWaitS                                       build/obj/chcond.o (symbol from plugin)
chCondWaitTimeout                                 build/obj/chcond.o (symbol from plugin)
chCondWaitTimeoutS                                build/obj/chcond.o (symbol from plugin)
chCoreAlloc                                       /tmp/cc5Oa950.ltrans1.ltrans.o
                                                  build/obj/chmemcore.o (symbol from plugin)
                                                  /tmp/cc5Oa950.ltrans12.ltrans.o
                                                  /tmp/cc5Oa950.ltrans0.ltrans.o
                                                  build/obj/syscalls.o (symbol from plugin)
                                                  build/obj/chheap.o (symbol from plugin)
chCoreAllocI                                      build/obj/chmemcore.o (symbol from plugin)
chCoreGetStatusX                                  build/obj/chmemcore.o (symbol from plugin)
chDbgCheckClassI                                  /tmp/cc5Oa950.ltrans1.ltrans.o
                                                  build/obj/chdebug.o (symbol from plugin)
                                                  /tmp/cc5Oa950.ltrans16.ltrans.o
                                                  /tmp/cc5Oa950.ltrans10.ltrans.o
                                                  /tmp/cc5Oa950.ltrans6.ltrans.o
                                                  /tmp/cc5Oa950.ltrans5.ltrans.o
                                                  /tmp/cc5Oa950.ltrans4.ltrans.o
                                                  build/obj/evtimer.o (symbol from plugin)
                                                  build/obj/usb.o (symbol from plugin)
                                                  build/obj/uart.o (symbol from plugin)
                                                  build/obj/can.o (symbol from plugin)
                                                  build/obj/hal_buffers.o (symbol from plugin)
                                                  build/obj/chmempools.o (symbol from plugin)
                                                  build/obj/chmemcore.o (symbol from plugin)
                                                  build/obj/chqueues.o (symbol from plugin)
                                                  build/obj/chmboxes.o (symbol from plugin)
                                                  build/obj/chmsg.o (symbol from plugin)
                                                  build/obj/chevents.o (symbol from plugin)
                                                  build/obj/chcond.o (symbol from plugin)
                                                  build/obj/chsem.o (symbol from plugin)
                                                  build/obj/chthreads.o (symbol from plugin)
                                                  build/obj/chschd.o (symbol from plugin)
                                                  build/obj/chvt.o (symbol from plugin)
                                                  build/obj/chsys.o (symbol from plugin)
chDbgCheckClassS                                  /tmp/cc5Oa950.ltrans1.ltrans.o
                                                  build/obj/chdebug.o (symbol from plugin)
                                                  /tmp/cc5Oa950.ltrans15.ltrans.o
                                                  /tmp/cc5Oa950.ltrans5.ltrans.o
                                                  /tmp/cc5Oa950.ltrans4.ltrans.o
                                                  build/obj/hal_buffers.o (symbol from plugin)
                                                  build/obj/chmboxes.o (symbol from plugin)
                                                  build/obj/chmsg.o (symbol from plugin)
                                                  build/obj/chcond.o (symbol from plugin)
                                                  build/obj/chmtx.o (symbol from plugin)
                                                  build/obj/chsem.o (symbol from plugin)
                                                  build/obj/chthreads.o (symbol from plugin)
                                                  build/obj/chschd.o (symbol from plugin)
chEvtAddEvents                                    build/obj/chevents.o (symbol from plugin)
chEvtBroadcastFlags                               build/obj/chevents.o (symbol from plugin)
chEvtBroadcastFlagsI                              /tmp/cc5Oa950.ltrans1.ltrans.o
                                                  build/obj/chevents.o (symbol from plugin)
                                                  /tmp/cc5Oa950.ltrans12.ltrans.o
                                                  /tmp/cc5Oa950.ltrans10.ltrans.o
                                                  /tmp/cc5Oa950.ltrans7.ltrans.o
                                                  /tmp/cc5Oa950.ltrans6.ltrans.o
                                                  /tmp/cc5Oa950.ltrans4.ltrans.o
                                                  build/obj/evtimer.o (symbol from plugin)
                                                  build/obj/shell.o (symbol from plugin)
                                                  build/obj/can_lld.o (symbol from plugin)
                                                  build/obj/serial_usb.o (symbol from plugin)
                                                  build/obj/can.o (symbol from plugin)
chEvtDispatch                                     build/obj/chevents.o (symbol from plugin)
chEvtGetAndClearEvents                            build/obj/chevents.o (symbol from plugin)
chEvtGetAndClearFlags                             build/obj/chevents.o (symbol from plugin)
chEvtGetAndClearFlagsI                            build/obj/chevents.o (symbol from plugin)
chEvtRegisterMaskWithFlags                        build/obj/chevents.o (symbol from plugin)
                                                  build/obj/canBusProcess.o (symbol from plugin)
chEvtSignal                                       build/obj/chevents.o (symbol from plugin)
chEvtSignalI                                      build/obj/chevents.o (symbol from plugin)
chEvtUnregister                                   build/obj/chevents.o (symbol from plugin)
                                                  build/obj/canBusProcess.o (symbol from plugin)
chEvtWaitAll                                      build/obj/chevents.o (symbol from plugin)
chEvtWaitAllTimeout                               build/obj/chevents.o (symbol from plugin)
chEvtWaitAny                                      build/obj/chevents.o (symbol from plugin)
chEvtWaitAnyTimeout                               build/obj/chevents.o (symbol from plugin)
                                                  build/obj/canBusProcess.o (symbol from plugin)
chEvtWaitOne                                      build/obj/chevents.o (symbol from plugin)
chEvtWaitOneTimeout                               build/obj/chevents.o (symbol from plugin)
chHeapAlloc                                       build/obj/chheap.o (symbol from plugin)
                                                  build/obj/chdynamic.o (symbol from plugin)
chHeapFree                                        build/obj/chheap.o (symbol from plugin)
                                                  build/obj/chdynamic.o (symbol from plugin)
chHeapObjectInit                                  build/obj/chheap.o (symbol from plugin)
chHeapStatus                                      build/obj/chheap.o (symbol from plugin)
chIQGetTimeout                                    build/obj/chqueues.o (symbol from plugin)
chIQObjectInit                                    build/obj/chqueues.o (symbol from plugin)
chIQPutI                                          build/obj/chqueues.o (symbol from plugin)
chIQReadTimeout                                   build/obj/chqueues.o (symbol from plugin)
chIQResetI                                        build/obj/chqueues.o (symbol from plugin)
chMBFetch                                         build/obj/chmboxes.o (symbol from plugin)
chMBFetchI                                        build/obj/chmboxes.o (symbol from plugin)
chMBFetchS                                        build/obj/chmboxes.o (symbol from plugin)
chMBObjectInit                                    build/obj/chmboxes.o (symbol from plugin)
chMBPost                                          build/obj/chmboxes.o (symbol from plugin)
chMBPostAhead                                     build/obj/chmboxes.o (symbol from plugin)
chMBPostAheadI                                    build/obj/chmboxes.o (symbol from plugin)
chMBPostAheadS                                    build/obj/chmboxes.o (symbol from plugin)
chMBPostI                                         build/obj/chmboxes.o (symbol from plugin)
chMBPostS                                         build/obj/chmboxes.o (symbol from plugin)
chMBReset                                         build/obj/chmboxes.o (symbol from plugin)
chMBResetI                                        build/obj/chmboxes.o (symbol from plugin)
chMsgRelease                                      build/obj/chmsg.o (symbol from plugin)
chMsgSend                                         build/obj/chmsg.o (symbol from plugin)
chMsgWait                                         build/obj/chmsg.o (symbol from plugin)
chMtxLock                                         build/obj/chmtx.o (symbol from plugin)
                                                  build/obj/spi.o (symbol from plugin)
                                                  build/obj/chheap.o (symbol from plugin)
chMtxLockS                                        build/obj/chmtx.o (symbol from plugin)
                                                  build/obj/chcond.o (symbol from plugin)
chMtxObjectInit                                   build/obj/chmtx.o (symbol from plugin)
                                                  build/obj/spi.o (symbol from plugin)
                                                  build/obj/chheap.o (symbol from plugin)
chMtxTryLock                                      build/obj/chmtx.o (symbol from plugin)
chMtxTryLockS                                     build/obj/chmtx.o (symbol from plugin)
chMtxUnlock                                       build/obj/chmtx.o (symbol from plugin)
                                                  build/obj/spi.o (symbol from plugin)
                                                  build/obj/chheap.o (symbol from plugin)
chMtxUnlockAll                                    build/obj/chmtx.o (symbol from plugin)
chMtxUnlockS                                      build/obj/chmtx.o (symbol from plugin)
                                                  build/obj/chcond.o (symbol from plugin)
chOQGetI                                          build/obj/chqueues.o (symbol from plugin)
chOQObjectInit                                    build/obj/chqueues.o (symbol from plugin)
chOQPutTimeout                                    build/obj/chqueues.o (symbol from plugin)
chOQResetI                                        build/obj/chqueues.o (symbol from plugin)
chOQWriteTimeout                                  build/obj/chqueues.o (symbol from plugin)
chPoolAlloc                                       build/obj/chmempools.o (symbol from plugin)
                                                  build/obj/chdynamic.o (symbol from plugin)
chPoolAllocI                                      build/obj/chmempools.o (symbol from plugin)
chPoolFree                                        build/obj/chmempools.o (symbol from plugin)
                                                  build/obj/chdynamic.o (symbol from plugin)
chPoolFreeI                                       build/obj/chmempools.o (symbol from plugin)
chPoolLoadArray                                   build/obj/chmempools.o (symbol from plugin)
chPoolObjectInit                                  build/obj/chmempools.o (symbol from plugin)
chRegFirstThread                                  build/obj/chregistry.o (symbol from plugin)
chRegNextThread                                   build/obj/chregistry.o (symbol from plugin)
chSchDoReschedule                                 /tmp/cc5Oa950.ltrans1.ltrans.o
                                                  build/obj/chschd.o (symbol from plugin)
                                                  build/obj/chcoreasm_v7m.o
chSchDoRescheduleAhead                            build/obj/chschd.o (symbol from plugin)
chSchDoRescheduleBehind                           build/obj/chschd.o (symbol from plugin)
                                                  build/obj/chthreads.o (symbol from plugin)
chSchGoSleepS                                     /tmp/cc5Oa950.ltrans1.ltrans.o
                                                  build/obj/chschd.o (symbol from plugin)
                                                  /tmp/cc5Oa950.ltrans4.ltrans.o
                                                  build/obj/chmsg.o (symbol from plugin)
                                                  build/obj/chevents.o (symbol from plugin)
                                                  build/obj/chcond.o (symbol from plugin)
                                                  build/obj/chmtx.o (symbol from plugin)
                                                  build/obj/chsem.o (symbol from plugin)
                                                  build/obj/chthreads.o (symbol from plugin)
chSchGoSleepTimeoutS                              /tmp/cc5Oa950.ltrans1.ltrans.o
                                                  build/obj/chschd.o (symbol from plugin)
                                                  /tmp/cc5Oa950.ltrans8.ltrans.o
                                                  /tmp/cc5Oa950.ltrans7.ltrans.o
                                                  build/obj/can_lld.o (symbol from plugin)
                                                  build/obj/chevents.o (symbol from plugin)
                                                  build/obj/chcond.o (symbol from plugin)
                                                  build/obj/chsem.o (symbol from plugin)
                                                  build/obj/chthreads.o (symbol from plugin)
chSchIsPreemptionRequired                         build/obj/chschd.o (symbol from plugin)
                                                  build/obj/chcore_v7m.o (symbol from plugin)
chSchReadyI                                       /tmp/cc5Oa950.ltrans1.ltrans.o
                                                  build/obj/chschd.o (symbol from plugin)
                                                  /tmp/cc5Oa950.ltrans15.ltrans.o
                                                  /tmp/cc5Oa950.ltrans13.ltrans.o
                                                  /tmp/cc5Oa950.ltrans4.ltrans.o
                                                  /tmp/cc5Oa950.ltrans0.ltrans.o
                                                  build/obj/params.o (symbol from plugin)
                                                  build/obj/usb_lld.o (symbol from plugin)
                                                  build/obj/chmsg.o (symbol from plugin)
                                                  build/obj/chevents.o (symbol from plugin)
                                                  build/obj/chcond.o (symbol from plugin)
                                                  build/obj/chmtx.o (symbol from plugin)
                                                  build/obj/chsem.o (symbol from plugin)
                                                  build/obj/chthreads.o (symbol from plugin)
chSchRescheduleS                                  /tmp/cc5Oa950.ltrans1.ltrans.o
                                                  build/obj/chschd.o (symbol from plugin)
                                                  /tmp/cc5Oa950.ltrans4.ltrans.o
                                                  /tmp/cc5Oa950.ltrans0.ltrans.o
                                                  build/obj/usb_lld.o (symbol from plugin)
                                                  build/obj/usb.o (symbol from plugin)
                                                  build/obj/serial_usb.o (symbol from plugin)
                                                  build/obj/can.o (symbol from plugin)
                                                  build/obj/chmboxes.o (symbol from plugin)
                                                  build/obj/chevents.o (symbol from plugin)
                                                  build/obj/chcond.o (symbol from plugin)
                                                  build/obj/chmtx.o (symbol from plugin)
                                                  build/obj/chsem.o (symbol from plugin)
                                                  build/obj/chthreads.o (symbol from plugin)
                                                  build/obj/chsys.o (symbol from plugin)
chSchWakeupS                                      build/obj/chschd.o (symbol from plugin)
                                                  build/obj/chmsg.o (symbol from plugin)
                                                  build/obj/chcond.o (symbol from plugin)
                                                  build/obj/chsem.o (symbol from plugin)
                                                  build/obj/chdynamic.o (symbol from plugin)
                                                  build/obj/chthreads.o (symbol from plugin)
chSchWakeupS.constprop.83                         /tmp/cc5Oa950.ltrans15.ltrans.o
                                                  /tmp/cc5Oa950.ltrans1.ltrans.o
chSemAddCounterI                                  build/obj/chsem.o (symbol from plugin)
chSemObjectInit                                   build/obj/chsem.o (symbol from plugin)
                                                  build/obj/chmboxes.o (symbol from plugin)
chSemReset                                        build/obj/chsem.o (symbol from plugin)
chSemResetI                                       build/obj/chsem.o (symbol from plugin)
                                                  build/obj/chmboxes.o (symbol from plugin)
chSemSignal                                       build/obj/chsem.o (symbol from plugin)
chSemSignalI                                      build/obj/chsem.o (symbol from plugin)
                                                  build/obj/chmboxes.o (symbol from plugin)
chSemSignalWait                                   build/obj/chsem.o (symbol from plugin)
chSemWait                                         build/obj/chsem.o (symbol from plugin)
chSemWaitS                                        build/obj/chsem.o (symbol from plugin)
chSemWaitTimeout                                  build/obj/chsem.o (symbol from plugin)
chSemWaitTimeoutS                                 build/obj/chsem.o (symbol from plugin)
                                                  build/obj/chmboxes.o (symbol from plugin)
chSysGetStatusAndLockX                            build/obj/chsys.o (symbol from plugin)
chSysHalt                                         build/obj/chsys.o (symbol from plugin)
                                                  build/obj/exti.o (symbol from plugin)
                                                  build/obj/params.o (symbol from plugin)
                                                  build/obj/gimbal.o (symbol from plugin)
                                                  build/obj/dbus.o (symbol from plugin)
                                                  build/obj/canBusProcess.o (symbol from plugin)
                                                  build/obj/adis16265.o (symbol from plugin)
                                                  build/obj/main.o (symbol from plugin)
                                                  build/obj/syscalls.o (symbol from plugin)
                                                  build/obj/evtimer.o (symbol from plugin)
                                                  build/obj/shell.o (symbol from plugin)
                                                  build/obj/uart_lld.o (symbol from plugin)
                                                  build/obj/pwm_lld.o (symbol from plugin)
                                                  build/obj/spi_lld.o (symbol from plugin)
                                                  build/obj/sdc_lld.o (symbol from plugin)
                                                  build/obj/usb_lld.o (symbol from plugin)
                                                  build/obj/can_lld.o (symbol from plugin)
                                                  build/obj/stm32_dma.o (symbol from plugin)
                                                  build/obj/nvic.o (symbol from plugin)
                                                  build/obj/usb.o (symbol from plugin)
                                                  build/obj/uart.o (symbol from plugin)
                                                  build/obj/spi.o (symbol from plugin)
                                                  build/obj/serial_usb.o (symbol from plugin)
                                                  build/obj/sdc.o (symbol from plugin)
                                                  build/obj/pwm.o (symbol from plugin)
                                                  build/obj/pal.o (symbol from plugin)
                                                  build/obj/ext.o (symbol from plugin)
                                                  build/obj/can.o (symbol from plugin)
                                                  build/obj/hal_mmcsd.o (symbol from plugin)
                                                  build/obj/hal_buffers.o (symbol from plugin)
                                                  build/obj/st.o (symbol from plugin)
                                                  build/obj/chmempools.o (symbol from plugin)
                                                  build/obj/chheap.o (symbol from plugin)
                                                  build/obj/chmemcore.o (symbol from plugin)
                                                  build/obj/chqueues.o (symbol from plugin)
                                                  build/obj/chmboxes.o (symbol from plugin)
                                                  build/obj/chmsg.o (symbol from plugin)
                                                  build/obj/chevents.o (symbol from plugin)
                                                  build/obj/chcond.o (symbol from plugin)
                                                  build/obj/chmtx.o (symbol from plugin)
                                                  build/obj/chsem.o (symbol from plugin)
                                                  build/obj/chregistry.o (symbol from plugin)
                                                  build/obj/chdynamic.o (symbol from plugin)
                                                  build/obj/chthreads.o (symbol from plugin)
                                                  build/obj/chschd.o (symbol from plugin)
                                                  build/obj/chvt.o (symbol from plugin)
                                                  build/obj/chdebug.o (symbol from plugin)
chSysInit                                         build/obj/chsys.o (symbol from plugin)
                                                  build/obj/main.o (symbol from plugin)
chSysIntegrityCheckI                              build/obj/chsys.o (symbol from plugin)
chSysIsCounterWithinX                             build/obj/chsys.o (symbol from plugin)
chSysPolledDelayX                                 /tmp/cc5Oa950.ltrans1.ltrans.o
                                                  build/obj/chsys.o (symbol from plugin)
                                                  /tmp/cc5Oa950.ltrans7.ltrans.o
                                                  /tmp/cc5Oa950.ltrans4.ltrans.o
                                                  /tmp/cc5Oa950.ltrans0.ltrans.o
                                                  build/obj/usb_lld.o (symbol from plugin)
chSysRestoreStatusX                               build/obj/chsys.o (symbol from plugin)
chSysTimerHandlerI                                build/obj/chsys.o (symbol from plugin)
                                                  build/obj/st_lld.o (symbol from plugin)
chSysUnlock.lto_priv.102                          /tmp/cc5Oa950.ltrans5.ltrans.o
                                                  /tmp/cc5Oa950.ltrans10.ltrans.o
chSysUnlock.lto_priv.131                          /tmp/cc5Oa950.ltrans5.ltrans.o
                                                  /tmp/cc5Oa950.ltrans0.ltrans.o
chSysUnlock.lto_priv.91                           /tmp/cc5Oa950.ltrans5.ltrans.o
                                                  /tmp/cc5Oa950.ltrans0.ltrans.o
chTMChainMeasurementToX                           /tmp/cc5Oa950.ltrans1.ltrans.o
                                                  build/obj/chtm.o (symbol from plugin)
                                                  /tmp/cc5Oa950.ltrans15.ltrans.o
                                                  build/obj/chstats.o (symbol from plugin)
chTMObjectInit                                    build/obj/chtm.o (symbol from plugin)
                                                  build/obj/chstats.o (symbol from plugin)
                                                  build/obj/chthreads.o (symbol from plugin)
chTMStartMeasurementX                             /tmp/cc5Oa950.ltrans1.ltrans.o
                                                  build/obj/chtm.o (symbol from plugin)
                                                  /tmp/cc5Oa950.ltrans0.ltrans.o
                                                  build/obj/chstats.o (symbol from plugin)
                                                  build/obj/chsys.o (symbol from plugin)
chTMStopMeasurementX                              /tmp/cc5Oa950.ltrans1.ltrans.o
                                                  build/obj/chtm.o (symbol from plugin)
                                                  /tmp/cc5Oa950.ltrans0.ltrans.o
                                                  build/obj/chstats.o (symbol from plugin)
chThdAddRef                                       build/obj/chdynamic.o (symbol from plugin)
chThdCreateFromHeap                               build/obj/chdynamic.o (symbol from plugin)
                                                  build/obj/shell.o (symbol from plugin)
chThdCreateFromMemoryPool                         build/obj/chdynamic.o (symbol from plugin)
chThdCreateI                                      /tmp/cc5Oa950.ltrans1.ltrans.o
                                                  build/obj/chthreads.o (symbol from plugin)
                                                  /tmp/cc5Oa950.ltrans13.ltrans.o
                                                  /tmp/cc5Oa950.ltrans0.ltrans.o
                                                  build/obj/params.o (symbol from plugin)
                                                  build/obj/usb_lld.o (symbol from plugin)
                                                  build/obj/chdynamic.o (symbol from plugin)
chThdCreateStatic                                 /tmp/cc5Oa950.ltrans1.ltrans.o
                                                  build/obj/chthreads.o (symbol from plugin)
                                                  /tmp/cc5Oa950.ltrans10.ltrans.o
                                                  /tmp/cc5Oa950.ltrans2.ltrans.o
                                                  /tmp/cc5Oa950.ltrans0.ltrans.o
                                                  build/obj/sdlog.o (symbol from plugin)
                                                  build/obj/imu_temp.o (symbol from plugin)
                                                  build/obj/exti.o (symbol from plugin)
                                                  build/obj/shoot_pwm.o (symbol from plugin)
                                                  build/obj/gimbal_sys_iden.o (symbol from plugin)
                                                  build/obj/params.o (symbol from plugin)
                                                  build/obj/gimbal.o (symbol from plugin)
                                                  build/obj/dbus.o (symbol from plugin)
                                                  build/obj/canBusProcess.o (symbol from plugin)
                                                  build/obj/adis16265.o (symbol from plugin)
                                                  build/obj/tft_display.o (symbol from plugin)
                                                  build/obj/shellcfg.o (symbol from plugin)
                                                  build/obj/main.o (symbol from plugin)
                                                  build/obj/shell.o (symbol from plugin)
                                                  build/obj/chsys.o (symbol from plugin)
chThdDequeueAllI                                  /tmp/cc5Oa950.ltrans1.ltrans.o
                                                  build/obj/chthreads.o (symbol from plugin)
                                                  /tmp/cc5Oa950.ltrans10.ltrans.o
                                                  /tmp/cc5Oa950.ltrans7.ltrans.o
                                                  /tmp/cc5Oa950.ltrans6.ltrans.o
                                                  build/obj/can_lld.o (symbol from plugin)
                                                  build/obj/can.o (symbol from plugin)
                                                  build/obj/hal_buffers.o (symbol from plugin)
                                                  build/obj/chqueues.o (symbol from plugin)
chThdDequeueNextI                                 build/obj/chthreads.o (symbol from plugin)
                                                  build/obj/hal_buffers.o (symbol from plugin)
                                                  build/obj/chqueues.o (symbol from plugin)
chThdEnqueueTimeoutS                              /tmp/cc5Oa950.ltrans1.ltrans.o
                                                  build/obj/chthreads.o (symbol from plugin)
                                                  /tmp/cc5Oa950.ltrans9.ltrans.o
                                                  /tmp/cc5Oa950.ltrans5.ltrans.o
                                                  build/obj/can.o (symbol from plugin)
                                                  build/obj/hal_buffers.o (symbol from plugin)
                                                  build/obj/chqueues.o (symbol from plugin)
chThdExit                                         /tmp/cc5Oa950.ltrans1.ltrans.o
                                                  build/obj/chthreads.o (symbol from plugin)
                                                  /tmp/cc5Oa950.ltrans13.ltrans.o
                                                  build/obj/params.o (symbol from plugin)
                                                  build/obj/gimbal.o (symbol from plugin)
                                                  build/obj/chcoreasm_v7m.o
chThdExitS                                        /tmp/cc5Oa950.ltrans1.ltrans.o
                                                  build/obj/chthreads.o (symbol from plugin)
                                                  /tmp/cc5Oa950.ltrans13.ltrans.o
                                                  /tmp/cc5Oa950.ltrans12.ltrans.o
                                                  build/obj/gimbal.o (symbol from plugin)
                                                  build/obj/shell.o (symbol from plugin)
chThdRelease                                      build/obj/chdynamic.o (symbol from plugin)
                                                  build/obj/chregistry.o (symbol from plugin)
                                                  build/obj/chthreads.o (symbol from plugin)
chThdResume                                       build/obj/chthreads.o (symbol from plugin)
                                                  build/obj/shellcfg.o (symbol from plugin)
chThdResume.constprop.79                          /tmp/cc5Oa950.ltrans15.ltrans.o
                                                  /tmp/cc5Oa950.ltrans2.ltrans.o
chThdResumeI                                      /tmp/cc5Oa950.ltrans1.ltrans.o
                                                  build/obj/chthreads.o (symbol from plugin)
                                                  /tmp/cc5Oa950.ltrans14.ltrans.o
                                                  /tmp/cc5Oa950.ltrans13.ltrans.o
                                                  /tmp/cc5Oa950.ltrans10.ltrans.o
                                                  /tmp/cc5Oa950.ltrans8.ltrans.o
                                                  /tmp/cc5Oa950.ltrans7.ltrans.o
                                                  /tmp/cc5Oa950.ltrans3.ltrans.o
                                                  build/obj/exti.o (symbol from plugin)
                                                  build/obj/params.o (symbol from plugin)
                                                  build/obj/dbus.o (symbol from plugin)
                                                  build/obj/uart_lld.o (symbol from plugin)
                                                  build/obj/spi_lld.o (symbol from plugin)
                                                  build/obj/sdc_lld.o (symbol from plugin)
                                                  build/obj/usb_lld.o (symbol from plugin)
chThdResumeS                                      build/obj/chthreads.o (symbol from plugin)
                                                  build/obj/gimbal.o (symbol from plugin)
chThdResumeS.constprop.80                         /tmp/cc5Oa950.ltrans15.ltrans.o
                                                  /tmp/cc5Oa950.ltrans13.ltrans.o
chThdSetPriority                                  build/obj/chthreads.o (symbol from plugin)
chThdSleep                                        /tmp/cc5Oa950.ltrans1.ltrans.o
                                                  build/obj/chthreads.o (symbol from plugin)
                                                  /tmp/cc5Oa950.ltrans13.ltrans.o
                                                  /tmp/cc5Oa950.ltrans12.ltrans.o
                                                  /tmp/cc5Oa950.ltrans11.ltrans.o
                                                  /tmp/cc5Oa950.ltrans10.ltrans.o
                                                  /tmp/cc5Oa950.ltrans5.ltrans.o
                                                  /tmp/cc5Oa950.ltrans2.ltrans.o
                                                  /tmp/cc5Oa950.ltrans0.ltrans.o
                                                  build/obj/exti.o (symbol from plugin)
                                                  build/obj/shoot_pwm.o (symbol from plugin)
                                                  build/obj/gimbal_sys_iden.o (symbol from plugin)
                                                  build/obj/calibrate_sensor.o (symbol from plugin)
                                                  build/obj/params.o (symbol from plugin)
                                                  build/obj/gimbal.o (symbol from plugin)
                                                  build/obj/canBusProcess.o (symbol from plugin)
                                                  build/obj/adis16265.o (symbol from plugin)
                                                  build/obj/ist8310.o (symbol from plugin)
                                                  build/obj/mpu6500.o (symbol from plugin)
                                                  build/obj/tft_display.o (symbol from plugin)
                                                  build/obj/shellcfg.o (symbol from plugin)
                                                  build/obj/main.o (symbol from plugin)
                                                  build/obj/shell.o (symbol from plugin)
                                                  build/obj/sdc_lld.o (symbol from plugin)
                                                  build/obj/sdc.o (symbol from plugin)
chThdSleepUntil                                   /tmp/cc5Oa950.ltrans1.ltrans.o
                                                  build/obj/chthreads.o (symbol from plugin)
                                                  /tmp/cc5Oa950.ltrans13.ltrans.o
                                                  /tmp/cc5Oa950.ltrans11.ltrans.o
                                                  /tmp/cc5Oa950.ltrans10.ltrans.o
                                                  /tmp/cc5Oa950.ltrans2.ltrans.o
                                                  build/obj/sdlog.o (symbol from plugin)
                                                  build/obj/imu_temp.o (symbol from plugin)
                                                  build/obj/gimbal_sys_iden.o (symbol from plugin)
                                                  build/obj/gimbal.o (symbol from plugin)
                                                  build/obj/adis16265.o (symbol from plugin)
                                                  build/obj/shellcfg.o (symbol from plugin)
                                                  build/obj/main.o (symbol from plugin)
chThdSleepUntilWindowed                           build/obj/chthreads.o (symbol from plugin)
chThdStart                                        build/obj/chthreads.o (symbol from plugin)
chThdSuspendS                                     /tmp/cc5Oa950.ltrans1.ltrans.o
                                                  build/obj/chthreads.o (symbol from plugin)
                                                  /tmp/cc5Oa950.ltrans14.ltrans.o
                                                  /tmp/cc5Oa950.ltrans13.ltrans.o
                                                  /tmp/cc5Oa950.ltrans11.ltrans.o
                                                  /tmp/cc5Oa950.ltrans10.ltrans.o
                                                  /tmp/cc5Oa950.ltrans4.ltrans.o
                                                  /tmp/cc5Oa950.ltrans2.ltrans.o
                                                  build/obj/exti.o (symbol from plugin)
                                                  build/obj/params.o (symbol from plugin)
                                                  build/obj/gimbal.o (symbol from plugin)
                                                  build/obj/adis16265.o (symbol from plugin)
                                                  build/obj/main.o (symbol from plugin)
                                                  build/obj/sdc_lld.o (symbol from plugin)
                                                  build/obj/usb_lld.o (symbol from plugin)
                                                  build/obj/spi.o (symbol from plugin)
chThdSuspendTimeoutS                              build/obj/chthreads.o (symbol from plugin)
                                                  build/obj/dbus.o (symbol from plugin)
                                                  build/obj/uart.o (symbol from plugin)
chThdTerminate                                    build/obj/chthreads.o (symbol from plugin)
                                                  build/obj/shellcfg.o (symbol from plugin)
chThdWait                                         build/obj/chthreads.o (symbol from plugin)
chThdYield                                        build/obj/chthreads.o (symbol from plugin)
chVTDoResetI                                      build/obj/chvt.o (symbol from plugin)
                                                  build/obj/evtimer.o (symbol from plugin)
                                                  build/obj/chschd.o (symbol from plugin)
chVTDoSetI                                        build/obj/chvt.o (symbol from plugin)
                                                  build/obj/evtimer.o (symbol from plugin)
                                                  build/obj/chschd.o (symbol from plugin)
ch_debug                                          build/obj/chregistry.o (symbol from plugin)
                                                  build/obj/chsys.o (symbol from plugin)
chassis_encoder.lto_priv.157                      /tmp/cc5Oa950.ltrans8.ltrans.o
                                                  /tmp/cc5Oa950.ltrans0.ltrans.o
chp.lto_priv.128                                  /tmp/cc5Oa950.ltrans10.ltrans.o
chprintf                                          /tmp/cc5Oa950.ltrans11.ltrans.o
                                                  build/obj/chprintf.o (symbol from plugin)
                                                  /tmp/cc5Oa950.ltrans12.ltrans.o
                                                  /tmp/cc5Oa950.ltrans10.ltrans.o
                                                  /tmp/cc5Oa950.ltrans2.ltrans.o
                                                  build/obj/calibrate_sensor.o (symbol from plugin)
                                                  build/obj/shellcfg.o (symbol from plugin)
                                                  build/obj/shell.o (symbol from plugin)
chsnprintf                                        build/obj/chprintf.o (symbol from plugin)
chvprintf                                         build/obj/chprintf.o (symbol from plugin)
                                                  build/obj/tft_display.o (symbol from plugin)
clust2sect                                        build/obj/ff.o (symbol from plugin)
cmd_calibrate                                     /tmp/cc5Oa950.ltrans2.ltrans.o
                                                  build/obj/shellcfg.o (symbol from plugin)
                                                  /tmp/cc5Oa950.ltrans0.ltrans.o
cmd_data                                          /tmp/cc5Oa950.ltrans2.ltrans.o
                                                  build/obj/shellcfg.o (symbol from plugin)
                                                  /tmp/cc5Oa950.ltrans0.ltrans.o
cmd_temp                                          /tmp/cc5Oa950.ltrans2.ltrans.o
                                                  build/obj/shellcfg.o (symbol from plugin)
                                                  /tmp/cc5Oa950.ltrans0.ltrans.o
cmd_test                                          /tmp/cc5Oa950.ltrans2.ltrans.o
                                                  build/obj/shellcfg.o (symbol from plugin)
                                                  /tmp/cc5Oa950.ltrans0.ltrans.o
copysignf                                         /usr/lib/gcc/arm-none-eabi/4.9.3/../../../arm-none-eabi/lib/armv7e-m/fpu/libm.a(lib_a-sf_copysign.o)
                                                  /usr/lib/gcc/arm-none-eabi/4.9.3/../../../arm-none-eabi/lib/armv7e-m/fpu/libm.a(lib_a-sf_scalbn.o)
cosf                                              /usr/lib/gcc/arm-none-eabi/4.9.3/../../../arm-none-eabi/lib/armv7e-m/fpu/libm.a(lib_a-sf_cos.o)
                                                  /tmp/cc5Oa950.ltrans13.ltrans.o
                                                  /tmp/cc5Oa950.ltrans11.ltrans.o
create_chain.lto_priv.101                         /tmp/cc5Oa950.ltrans3.ltrans.o
                                                  /tmp/cc5Oa950.ltrans10.ltrans.o
curr_bg_color                                     build/obj/tft_display.o (symbol from plugin)
curr_text_color                                   build/obj/tft_display.o (symbol from plugin)
curr_text_color_sp                                build/obj/tft_display.o (symbol from plugin)
dir_find.part.7.lto_priv.97                       /tmp/cc5Oa950.ltrans12.ltrans.o
                                                  /tmp/cc5Oa950.ltrans9.ltrans.o
dir_next.lto_priv.98                              /tmp/cc5Oa950.ltrans3.ltrans.o
                                                  /tmp/cc5Oa950.ltrans12.ltrans.o
                                                  /tmp/cc5Oa950.ltrans9.ltrans.o
dir_sdi.lto_priv.96                               /tmp/cc5Oa950.ltrans3.ltrans.o
                                                  /tmp/cc5Oa950.ltrans9.ltrans.o
disk_initialize                                   build/obj/fatfs_diskio.o (symbol from plugin)
                                                  build/obj/ff.o (symbol from plugin)
disk_ioctl                                        build/obj/fatfs_diskio.o (symbol from plugin)
                                                  build/obj/ff.o (symbol from plugin)
disk_read                                         build/obj/fatfs_diskio.o (symbol from plugin)
                                                  build/obj/ff.o (symbol from plugin)
disk_read.constprop.32                            /tmp/cc5Oa950.ltrans15.ltrans.o
                                                  /tmp/cc5Oa950.ltrans10.ltrans.o
                                                  /tmp/cc5Oa950.ltrans3.ltrans.o
disk_status                                       /tmp/cc5Oa950.ltrans3.ltrans.o
                                                  build/obj/fatfs_diskio.o (symbol from plugin)
                                                  /tmp/cc5Oa950.ltrans15.ltrans.o
                                                  /tmp/cc5Oa950.ltrans12.ltrans.o
                                                  build/obj/ff.o (symbol from plugin)
disk_write                                        /tmp/cc5Oa950.ltrans3.ltrans.o
                                                  build/obj/fatfs_diskio.o (symbol from plugin)
                                                  /tmp/cc5Oa950.ltrans15.ltrans.o
                                                  /tmp/cc5Oa950.ltrans12.ltrans.o
                                                  /tmp/cc5Oa950.ltrans10.ltrans.o
                                                  build/obj/ff.o (symbol from plugin)
dmaInit                                           build/obj/stm32_dma.o (symbol from plugin)
                                                  build/obj/hal_lld.o (symbol from plugin)
dmaStreamAllocate                                 /tmp/cc5Oa950.ltrans6.ltrans.o
                                                  build/obj/stm32_dma.o (symbol from plugin)
                                                  /tmp/cc5Oa950.ltrans4.ltrans.o
                                                  /tmp/cc5Oa950.ltrans3.ltrans.o
                                                  /tmp/cc5Oa950.ltrans0.ltrans.o
                                                  build/obj/uart_lld.o (symbol from plugin)
                                                  build/obj/spi_lld.o (symbol from plugin)
                                                  build/obj/sdc_lld.o (symbol from plugin)
dmaStreamRelease                                  build/obj/stm32_dma.o (symbol from plugin)
                                                  build/obj/dbus.o (symbol from plugin)
                                                  build/obj/uart_lld.o (symbol from plugin)
                                                  build/obj/spi_lld.o (symbol from plugin)
                                                  build/obj/sdc_lld.o (symbol from plugin)
dma_isr_redir.lto_priv.192                        /tmp/cc5Oa950.ltrans0.ltrans.o
                                                  /tmp/cc5Oa950.ltrans6.ltrans.o
dma_streams_mask.lto_priv.164                     /tmp/cc5Oa950.ltrans8.ltrans.o
                                                  /tmp/cc5Oa950.ltrans6.ltrans.o
                                                  /tmp/cc5Oa950.ltrans0.ltrans.o
dummytx.lto_priv.198                              /tmp/cc5Oa950.ltrans0.ltrans.o
                                                  /tmp/cc5Oa950.ltrans4.ltrans.o
endmem.lto_priv.209                               /tmp/cc5Oa950.ltrans0.ltrans.o
                                                  /tmp/cc5Oa950.ltrans1.ltrans.o
evtObjectInit                                     build/obj/evtimer.o (symbol from plugin)
evtStart                                          build/obj/evtimer.o (symbol from plugin)
excitation                                        build/obj/gimbal_sys_iden.o (symbol from plugin)
extChannelDisable                                 build/obj/ext.o (symbol from plugin)
extChannelEnable                                  build/obj/ext.o (symbol from plugin)
                                                  build/obj/exti.o (symbol from plugin)
extInit                                           build/obj/ext.o (symbol from plugin)
                                                  build/obj/hal.o (symbol from plugin)
extObjectInit                                     build/obj/ext.o (symbol from plugin)
                                                  build/obj/ext_lld.o (symbol from plugin)
extSetChannelModeI                                build/obj/ext.o (symbol from plugin)
extStart                                          build/obj/ext.o (symbol from plugin)
                                                  build/obj/exti.o (symbol from plugin)
extStop                                           build/obj/ext.o (symbol from plugin)
ext_lld_channel_disable                           build/obj/ext_lld.o (symbol from plugin)
                                                  build/obj/ext.o (symbol from plugin)
ext_lld_channel_enable                            build/obj/ext_lld.o (symbol from plugin)
                                                  build/obj/ext.o (symbol from plugin)
ext_lld_channel_enable.constprop.56               /tmp/cc5Oa950.ltrans15.ltrans.o
                                                  /tmp/cc5Oa950.ltrans0.ltrans.o
ext_lld_exti_irq_disable                          build/obj/ext_lld_isr.o (symbol from plugin)
                                                  build/obj/ext_lld.o (symbol from plugin)
ext_lld_exti_irq_enable                           build/obj/ext_lld_isr.o (symbol from plugin)
                                                  build/obj/ext_lld.o (symbol from plugin)
ext_lld_init                                      build/obj/ext_lld.o (symbol from plugin)
                                                  build/obj/ext.o (symbol from plugin)
ext_lld_start                                     build/obj/ext_lld.o (symbol from plugin)
                                                  build/obj/ext.o (symbol from plugin)
ext_lld_stop                                      build/obj/ext_lld.o (symbol from plugin)
                                                  build/obj/ext.o (symbol from plugin)
extcb10.lto_priv.165                              /tmp/cc5Oa950.ltrans10.ltrans.o
                                                  /tmp/cc5Oa950.ltrans0.ltrans.o
extiinit                                          build/obj/exti.o (symbol from plugin)
                                                  build/obj/main.o (symbol from plugin)
f_close                                           build/obj/ff.o (symbol from plugin)
                                                  build/obj/sdlog.o (symbol from plugin)
f_close.constprop.23                              /tmp/cc5Oa950.ltrans15.ltrans.o
                                                  /tmp/cc5Oa950.ltrans0.ltrans.o
f_lseek                                           build/obj/ff.o (symbol from plugin)
                                                  build/obj/sdlog.o (symbol from plugin)
f_lseek.constprop.20                              /tmp/cc5Oa950.ltrans9.ltrans.o
                                                  /tmp/cc5Oa950.ltrans10.ltrans.o
                                                  /tmp/cc5Oa950.ltrans0.ltrans.o
f_mount                                           build/obj/ff.o (symbol from plugin)
                                                  build/obj/sdlog.o (symbol from plugin)
f_open                                            build/obj/ff.o (symbol from plugin)
                                                  build/obj/sdlog.o (symbol from plugin)
f_open.constprop.21                               /tmp/cc5Oa950.ltrans9.ltrans.o
                                                  /tmp/cc5Oa950.ltrans10.ltrans.o
                                                  /tmp/cc5Oa950.ltrans0.ltrans.o
f_read                                            build/obj/ff.o (symbol from plugin)
f_sync                                            build/obj/ff.o (symbol from plugin)
                                                  build/obj/sdlog.o (symbol from plugin)
f_sync.constprop.24                               /tmp/cc5Oa950.ltrans15.ltrans.o
                                                  /tmp/cc5Oa950.ltrans10.ltrans.o
f_write                                           build/obj/ff.o (symbol from plugin)
                                                  build/obj/sdlog.o (symbol from plugin)
fabsf                                             /usr/lib/gcc/arm-none-eabi/4.9.3/../../../arm-none-eabi/lib/armv7e-m/fpu/libm.a(lib_a-sf_fabs.o)
                                                  /usr/lib/gcc/arm-none-eabi/4.9.3/../../../arm-none-eabi/lib/armv7e-m/fpu/libm.a(lib_a-sf_atan.o)
                                                  /usr/lib/gcc/arm-none-eabi/4.9.3/../../../arm-none-eabi/lib/armv7e-m/fpu/libm.a(lib_a-kf_tan.o)
                                                  /usr/lib/gcc/arm-none-eabi/4.9.3/../../../arm-none-eabi/lib/armv7e-m/fpu/libm.a(lib_a-ef_rem_pio2.o)
                                                  /usr/lib/gcc/arm-none-eabi/4.9.3/../../../arm-none-eabi/lib/armv7e-m/fpu/libm.a(lib_a-ef_atan2.o)
                                                  /usr/lib/gcc/arm-none-eabi/4.9.3/../../../arm-none-eabi/lib/armv7e-m/fpu/libm.a(lib_a-ef_asin.o)
                                                  /usr/lib/gcc/arm-none-eabi/4.9.3/../../../arm-none-eabi/lib/armv7e-m/fpu/libm.a(lib_a-wf_asin.o)
ff_convert                                        build/obj/unicode.o (symbol from plugin)
                                                  build/obj/ff.o (symbol from plugin)
ff_wtoupper                                       build/obj/unicode.o (symbol from plugin)
                                                  build/obj/ff.o (symbol from plugin)
fil.lto_priv.90                                   /tmp/cc5Oa950.ltrans15.ltrans.o
                                                  /tmp/cc5Oa950.ltrans10.ltrans.o
                                                  /tmp/cc5Oa950.ltrans9.ltrans.o
find_volume.lto_priv.95                           /tmp/cc5Oa950.ltrans12.ltrans.o
                                                  /tmp/cc5Oa950.ltrans9.ltrans.o
                                                  /tmp/cc5Oa950.ltrans0.ltrans.o
flashRead                                         /tmp/cc5Oa950.ltrans2.ltrans.o
                                                  build/obj/flash.o (symbol from plugin)
                                                  /tmp/cc5Oa950.ltrans10.ltrans.o
                                                  build/obj/params.o (symbol from plugin)
flashReadData                                     build/obj/flash.o (symbol from plugin)
flashSectorAt                                     build/obj/flash.o (symbol from plugin)
flashSectorBegin                                  build/obj/flash.o (symbol from plugin)
flashSectorEnd                                    build/obj/flash.o (symbol from plugin)
flashSectorErase                                  build/obj/flash.o (symbol from plugin)
                                                  build/obj/params.o (symbol from plugin)
flashSectorSize                                   build/obj/flash.o (symbol from plugin)
flashUnlock.part.1.lto_priv.106                   /tmp/cc5Oa950.ltrans2.ltrans.o
                                                  /tmp/cc5Oa950.ltrans10.ltrans.o
flashWrite                                        build/obj/flash.o (symbol from plugin)
                                                  build/obj/params.o (symbol from plugin)
flashWrite.part.5.lto_priv.105                    /tmp/cc5Oa950.ltrans2.ltrans.o
                                                  /tmp/cc5Oa950.ltrans10.ltrans.o
flashWriteData                                    build/obj/flash.o (symbol from plugin)
floorf                                            /usr/lib/gcc/arm-none-eabi/4.9.3/../../../arm-none-eabi/lib/armv7e-m/fpu/libm.a(lib_a-sf_floor.o)
                                                  /usr/lib/gcc/arm-none-eabi/4.9.3/../../../arm-none-eabi/lib/armv7e-m/fpu/libm.a(lib_a-kf_rem_pio2.o)
g_IMU1                                            /tmp/cc5Oa950.ltrans10.ltrans.o
                                                  build/obj/mpu6500.o (symbol from plugin)
                                                  /tmp/cc5Oa950.ltrans11.ltrans.o
                                                  /tmp/cc5Oa950.ltrans2.ltrans.o
                                                  /tmp/cc5Oa950.ltrans0.ltrans.o
get.lto_priv.173                                  /tmp/cc5Oa950.ltrans16.ltrans.o
                                                  /tmp/cc5Oa950.ltrans0.ltrans.o
get_descriptor.lto_priv.168                       /tmp/cc5Oa950.ltrans10.ltrans.o
                                                  /tmp/cc5Oa950.ltrans0.ltrans.o
get_fat                                           build/obj/ff.o (symbol from plugin)
get_fat.part.5.lto_priv.100                       /tmp/cc5Oa950.ltrans12.ltrans.o
                                                  /tmp/cc5Oa950.ltrans9.ltrans.o
                                                  /tmp/cc5Oa950.ltrans3.ltrans.o
get_fattime                                       build/obj/fatfs_diskio.o (symbol from plugin)
                                                  build/obj/ff.o (symbol from plugin)
get_ldnumber.lto_priv.178                         /tmp/cc5Oa950.ltrans3.ltrans.o
                                                  /tmp/cc5Oa950.ltrans12.ltrans.o
                                                  /tmp/cc5Oa950.ltrans0.ltrans.o
gett.lto_priv.175                                 /tmp/cc5Oa950.ltrans16.ltrans.o
                                                  /tmp/cc5Oa950.ltrans0.ltrans.o
gimbal                                            build/obj/gimbal_sys_iden.o (symbol from plugin)
gimbal.lto_priv.122                               /tmp/cc5Oa950.ltrans13.ltrans.o
                                                  /tmp/cc5Oa950.ltrans8.ltrans.o
                                                  /tmp/cc5Oa950.ltrans0.ltrans.o
gimbal_encoder.lto_priv.154                       /tmp/cc5Oa950.ltrans8.ltrans.o
                                                  /tmp/cc5Oa950.ltrans0.ltrans.o
gimbal_encoderUpdate.lto_priv.121                 /tmp/cc5Oa950.ltrans8.ltrans.o
                                                  /tmp/cc5Oa950.ltrans13.ltrans.o
                                                  /tmp/cc5Oa950.ltrans0.ltrans.o
gimbal_get                                        build/obj/gimbal.o (symbol from plugin)
gimbal_get_error                                  build/obj/gimbal.o (symbol from plugin)
gimbal_get_sys_iden                               build/obj/gimbal_sys_iden.o (symbol from plugin)
gimbal_init                                       build/obj/gimbal.o (symbol from plugin)
                                                  build/obj/main.o (symbol from plugin)
gimbal_init_thread.lto_priv.152                   /tmp/cc5Oa950.ltrans13.ltrans.o
                                                  /tmp/cc5Oa950.ltrans0.ltrans.o
gimbal_sys_iden_init                              build/obj/gimbal_sys_iden.o (symbol from plugin)
gimbal_thread.lto_priv.153                        /tmp/cc5Oa950.ltrans13.ltrans.o
                                                  /tmp/cc5Oa950.ltrans0.ltrans.o
gyro.lto_priv.137                                 /tmp/cc5Oa950.ltrans2.ltrans.o
                                                  /tmp/cc5Oa950.ltrans0.ltrans.o
gyro_cal_result                                   build/obj/adis16265.o (symbol from plugin)
gyro_get                                          build/obj/adis16265.o (symbol from plugin)
                                                  build/obj/shellcfg.o (symbol from plugin)
gyro_get_adc                                      build/obj/adis16265.o (symbol from plugin)
gyro_get_angle                                    build/obj/adis16265.o (symbol from plugin)
gyro_get_flash                                    build/obj/adis16265.o (symbol from plugin)
gyro_get_offs                                     build/obj/adis16265.o (symbol from plugin)
gyro_get_power                                    build/obj/adis16265.o (symbol from plugin)
gyro_get_raw_vel                                  /tmp/cc5Oa950.ltrans2.ltrans.o
                                                  build/obj/adis16265.o (symbol from plugin)
                                                  /tmp/cc5Oa950.ltrans10.ltrans.o
                                                  build/obj/calibrate_sensor.o (symbol from plugin)
gyro_get_temp                                     build/obj/adis16265.o (symbol from plugin)
gyro_init                                         build/obj/adis16265.o (symbol from plugin)
                                                  build/obj/main.o (symbol from plugin)
gyro_set_scale                                    build/obj/adis16265.o (symbol from plugin)
gyro_thread.lto_priv.138                          /tmp/cc5Oa950.ltrans2.ltrans.o
                                                  /tmp/cc5Oa950.ltrans0.ltrans.o
gyro_txrx_spi.lto_priv.179                        /tmp/cc5Oa950.ltrans2.ltrans.o
                                                  /tmp/cc5Oa950.ltrans0.ltrans.o
gyro_update_offs                                  build/obj/adis16265.o (symbol from plugin)
halInit                                           build/obj/hal.o (symbol from plugin)
                                                  build/obj/main.o (symbol from plugin)
hal_lld_init                                      build/obj/hal_lld.o (symbol from plugin)
                                                  build/obj/hal.o (symbol from plugin)
ibnotify.lto_priv.161                             /tmp/cc5Oa950.ltrans4.ltrans.o
                                                  /tmp/cc5Oa950.ltrans0.ltrans.o
ibqGetEmptyBufferI                                build/obj/hal_buffers.o (symbol from plugin)
                                                  build/obj/serial_usb.o (symbol from plugin)
ibqGetFullBufferTimeout                           build/obj/hal_buffers.o (symbol from plugin)
ibqGetFullBufferTimeoutS                          build/obj/hal_buffers.o (symbol from plugin)
ibqGetTimeout                                     /tmp/cc5Oa950.ltrans1.ltrans.o
                                                  build/obj/hal_buffers.o (symbol from plugin)
                                                  /tmp/cc5Oa950.ltrans16.ltrans.o
                                                  build/obj/serial_usb.o (symbol from plugin)
ibqObjectInit                                     build/obj/hal_buffers.o (symbol from plugin)
                                                  build/obj/serial_usb.o (symbol from plugin)
ibqPostFullBufferI                                build/obj/hal_buffers.o (symbol from plugin)
                                                  build/obj/serial_usb.o (symbol from plugin)
ibqReadTimeout                                    /tmp/cc5Oa950.ltrans1.ltrans.o
                                                  build/obj/hal_buffers.o (symbol from plugin)
                                                  /tmp/cc5Oa950.ltrans16.ltrans.o
                                                  build/obj/serial_usb.o (symbol from plugin)
ibqReleaseEmptyBuffer                             build/obj/hal_buffers.o (symbol from plugin)
ibqReleaseEmptyBufferS                            build/obj/hal_buffers.o (symbol from plugin)
ibqResetI                                         build/obj/hal_buffers.o (symbol from plugin)
                                                  build/obj/serial_usb.o (symbol from plugin)
imuGetData                                        /tmp/cc5Oa950.ltrans2.ltrans.o
                                                  build/obj/mpu6500.o (symbol from plugin)
                                                  /tmp/cc5Oa950.ltrans11.ltrans.o
                                                  /tmp/cc5Oa950.ltrans10.ltrans.o
                                                  build/obj/imu_temp.o (symbol from plugin)
                                                  build/obj/main.o (symbol from plugin)
imuGetDataRaw                                     build/obj/mpu6500.o (symbol from plugin)
                                                  build/obj/calibrate_sensor.o (symbol from plugin)
imuInit                                           build/obj/mpu6500.o (symbol from plugin)
                                                  build/obj/main.o (symbol from plugin)
imuTXData.lto_priv.181                            /tmp/cc5Oa950.ltrans2.ltrans.o
                                                  /tmp/cc5Oa950.ltrans11.ltrans.o
imu_get                                           build/obj/mpu6500.o (symbol from plugin)
                                                  build/obj/imu_temp.o (symbol from plugin)
                                                  build/obj/gimbal_sys_iden.o (symbol from plugin)
                                                  build/obj/gimbal.o (symbol from plugin)
                                                  build/obj/ist8310.o (symbol from plugin)
                                                  build/obj/shellcfg.o (symbol from plugin)
                                                  build/obj/main.o (symbol from plugin)
ist8310_get                                       build/obj/ist8310.o (symbol from plugin)
ist8310_getError                                  build/obj/ist8310.o (symbol from plugin)
ist8310_getValue                                  build/obj/ist8310.o (symbol from plugin)
ist8310_init                                      build/obj/ist8310.o (symbol from plugin)
                                                  build/obj/main.o (symbol from plugin)
ist8310_update                                    build/obj/ist8310.o (symbol from plugin)
                                                  build/obj/main.o (symbol from plugin)
logger                                            /tmp/cc5Oa950.ltrans10.ltrans.o
                                                  build/obj/sdlog.o (symbol from plugin)
                                                  /tmp/cc5Oa950.ltrans0.ltrans.o
long_to_string_with_divisor.lto_priv.182          /tmp/cc5Oa950.ltrans12.ltrans.o
                                                  /tmp/cc5Oa950.ltrans11.ltrans.o
lp_pitchAngle.lto_priv.145                        /tmp/cc5Oa950.ltrans8.ltrans.o
                                                  /tmp/cc5Oa950.ltrans0.ltrans.o
lp_yawAngle.lto_priv.144                          /tmp/cc5Oa950.ltrans8.ltrans.o
                                                  /tmp/cc5Oa950.ltrans0.ltrans.o
lpfilter_apply                                    /tmp/cc5Oa950.ltrans8.ltrans.o
                                                  build/obj/math_misc.o (symbol from plugin)
                                                  /tmp/cc5Oa950.ltrans2.ltrans.o
                                                  build/obj/gimbal.o (symbol from plugin)
                                                  build/obj/adis16265.o (symbol from plugin)
lpfilter_init                                     /tmp/cc5Oa950.ltrans8.ltrans.o
                                                  build/obj/math_misc.o (symbol from plugin)
                                                  /tmp/cc5Oa950.ltrans0.ltrans.o
                                                  build/obj/gimbal.o (symbol from plugin)
                                                  build/obj/adis16265.o (symbol from plugin)
main                                              /tmp/cc5Oa950.ltrans0.ltrans.o
                                                  build/obj/main.o (symbol from plugin)
                                                  build/obj/crt0_v7m.o
matherr                                           /usr/lib/gcc/arm-none-eabi/4.9.3/../../../arm-none-eabi/lib/armv7e-m/fpu/libm.a(lib_a-s_matherr.o)
                                                  /usr/lib/gcc/arm-none-eabi/4.9.3/../../../arm-none-eabi/lib/armv7e-m/fpu/libm.a(lib_a-wf_sqrt.o)
                                                  /usr/lib/gcc/arm-none-eabi/4.9.3/../../../arm-none-eabi/lib/armv7e-m/fpu/libm.a(lib_a-wf_asin.o)
memcpy                                            /usr/lib/gcc/arm-none-eabi/4.9.3/../../../arm-none-eabi/lib/armv7e-m/fpu/libg.a(lib_a-memcpy.o)
                                                  /tmp/cc5Oa950.ltrans16.ltrans.o
                                                  /tmp/cc5Oa950.ltrans5.ltrans.o
                                                  /tmp/cc5Oa950.ltrans2.ltrans.o
                                                  /tmp/cc5Oa950.ltrans1.ltrans.o
memset                                            /usr/lib/gcc/arm-none-eabi/4.9.3/../../../arm-none-eabi/lib/armv7e-m/fpu/libg.a(lib_a-memset.o)
                                                  /tmp/cc5Oa950.ltrans12.ltrans.o
                                                  /tmp/cc5Oa950.ltrans11.ltrans.o
                                                  /tmp/cc5Oa950.ltrans4.ltrans.o
                                                  /tmp/cc5Oa950.ltrans0.ltrans.o
move_window.lto_priv.88                           /tmp/cc5Oa950.ltrans3.ltrans.o
                                                  /tmp/cc5Oa950.ltrans15.ltrans.o
                                                  /tmp/cc5Oa950.ltrans12.ltrans.o
                                                  /tmp/cc5Oa950.ltrans9.ltrans.o
msObjectInit                                      build/obj/memstreams.o (symbol from plugin)
                                                  build/obj/tft_display.o (symbol from plugin)
                                                  build/obj/chprintf.o (symbol from plugin)
nan                                               /usr/lib/gcc/arm-none-eabi/4.9.3/../../../arm-none-eabi/lib/armv7e-m/fpu/libm.a(lib_a-s_nan.o)
                                                  /usr/lib/gcc/arm-none-eabi/4.9.3/../../../arm-none-eabi/lib/armv7e-m/fpu/libm.a(lib_a-wf_asin.o)
nextmem.lto_priv.210                              /tmp/cc5Oa950.ltrans0.ltrans.o
                                                  /tmp/cc5Oa950.ltrans1.ltrans.o
nvicClearPending                                  build/obj/nvic.o (symbol from plugin)
nvicDisableVector                                 build/obj/nvic.o (symbol from plugin)
                                                  build/obj/uart_lld.o (symbol from plugin)
                                                  build/obj/pwm_lld.o (symbol from plugin)
                                                  build/obj/sdc_lld.o (symbol from plugin)
                                                  build/obj/usb_lld.o (symbol from plugin)
                                                  build/obj/ext_lld_isr.o (symbol from plugin)
                                                  build/obj/can_lld.o (symbol from plugin)
                                                  build/obj/stm32_dma.o (symbol from plugin)
nvicEnableVector                                  build/obj/nvic.o (symbol from plugin)
                                                  build/obj/uart_lld.o (symbol from plugin)
                                                  build/obj/pwm_lld.o (symbol from plugin)
                                                  build/obj/sdc_lld.o (symbol from plugin)
                                                  build/obj/usb_lld.o (symbol from plugin)
                                                  build/obj/ext_lld_isr.o (symbol from plugin)
                                                  build/obj/can_lld.o (symbol from plugin)
                                                  build/obj/st_lld.o (symbol from plugin)
                                                  build/obj/stm32_dma.o (symbol from plugin)
nvicSetSystemHandlerPriority                      build/obj/nvic.o (symbol from plugin)
obnotify.lto_priv.162                             /tmp/cc5Oa950.ltrans4.ltrans.o
                                                  /tmp/cc5Oa950.ltrans0.ltrans.o
obqFlush                                          build/obj/hal_buffers.o (symbol from plugin)
obqGetEmptyBufferTimeout                          build/obj/hal_buffers.o (symbol from plugin)
obqGetEmptyBufferTimeoutS                         build/obj/hal_buffers.o (symbol from plugin)
obqGetFullBufferI                                 /tmp/cc5Oa950.ltrans5.ltrans.o
                                                  build/obj/hal_buffers.o (symbol from plugin)
                                                  /tmp/cc5Oa950.ltrans10.ltrans.o
                                                  /tmp/cc5Oa950.ltrans4.ltrans.o
                                                  build/obj/serial_usb.o (symbol from plugin)
obqObjectInit                                     build/obj/hal_buffers.o (symbol from plugin)
                                                  build/obj/serial_usb.o (symbol from plugin)
obqPostFullBuffer                                 build/obj/hal_buffers.o (symbol from plugin)
obqPostFullBufferS                                build/obj/hal_buffers.o (symbol from plugin)
obqPutTimeout                                     /tmp/cc5Oa950.ltrans5.ltrans.o
                                                  build/obj/hal_buffers.o (symbol from plugin)
                                                  /tmp/cc5Oa950.ltrans16.ltrans.o
                                                  build/obj/serial_usb.o (symbol from plugin)
obqReleaseEmptyBufferI                            build/obj/hal_buffers.o (symbol from plugin)
                                                  build/obj/serial_usb.o (symbol from plugin)
obqResetI                                         build/obj/hal_buffers.o (symbol from plugin)
                                                  build/obj/serial_usb.o (symbol from plugin)
obqTryFlushI                                      build/obj/hal_buffers.o (symbol from plugin)
                                                  build/obj/serial_usb.o (symbol from plugin)
obqWriteTimeout                                   /tmp/cc5Oa950.ltrans5.ltrans.o
                                                  build/obj/hal_buffers.o (symbol from plugin)
                                                  /tmp/cc5Oa950.ltrans16.ltrans.o
                                                  build/obj/serial_usb.o (symbol from plugin)
pIMU                                              /tmp/cc5Oa950.ltrans0.ltrans.o
                                                  build/obj/main.o (symbol from plugin)
                                                  /tmp/cc5Oa950.ltrans11.ltrans.o
palReadBus                                        build/obj/pal.o (symbol from plugin)
palSetBusMode                                     build/obj/pal.o (symbol from plugin)
palWriteBus                                       build/obj/pal.o (symbol from plugin)
pal_default_config                                build/obj/board.o (symbol from plugin)
                                                  build/obj/hal.o (symbol from plugin)
param_name.lto_priv.117                           /tmp/cc5Oa950.ltrans10.ltrans.o
                                                  /tmp/cc5Oa950.ltrans13.ltrans.o
param_private_flag.lto_priv.116                   /tmp/cc5Oa950.ltrans10.ltrans.o
                                                  /tmp/cc5Oa950.ltrans13.ltrans.o
                                                  /tmp/cc5Oa950.ltrans0.ltrans.o
param_save_flash                                  /tmp/cc5Oa950.ltrans10.ltrans.o
                                                  build/obj/params.o (symbol from plugin)
                                                  /tmp/cc5Oa950.ltrans13.ltrans.o
                                                  /tmp/cc5Oa950.ltrans2.ltrans.o
                                                  build/obj/shellcfg.o (symbol from plugin)
param_valid_flag.lto_priv.111                     /tmp/cc5Oa950.ltrans10.ltrans.o
                                                  /tmp/cc5Oa950.ltrans13.ltrans.o
                                                  /tmp/cc5Oa950.ltrans0.ltrans.o
params.lto_priv.113                               /tmp/cc5Oa950.ltrans10.ltrans.o
                                                  /tmp/cc5Oa950.ltrans13.ltrans.o
params_init                                       build/obj/params.o (symbol from plugin)
                                                  build/obj/main.o (symbol from plugin)
params_rx.lto_priv.159                            /tmp/cc5Oa950.ltrans13.ltrans.o
                                                  /tmp/cc5Oa950.ltrans0.ltrans.o
params_set                                        build/obj/params.o (symbol from plugin)
                                                  build/obj/gimbal.o (symbol from plugin)
                                                  build/obj/adis16265.o (symbol from plugin)
                                                  build/obj/mpu6500.o (symbol from plugin)
params_set.part.0.lto_priv.180                    /tmp/cc5Oa950.ltrans10.ltrans.o
                                                  /tmp/cc5Oa950.ltrans11.ltrans.o
                                                  /tmp/cc5Oa950.ltrans0.ltrans.o
params_total.lto_priv.114                         /tmp/cc5Oa950.ltrans10.ltrans.o
                                                  /tmp/cc5Oa950.ltrans13.ltrans.o
pid_pitch_vel                                     build/obj/gimbal_sys_iden.o (symbol from plugin)
pid_yaw_vel                                       build/obj/gimbal_sys_iden.o (symbol from plugin)
pitch_pos_name                                    build/obj/gimbal.o (symbol from plugin)
print_pos                                         build/obj/tft_display.o (symbol from plugin)
prints_enabled                                    build/obj/tft_display.o (symbol from plugin)
put.lto_priv.172                                  /tmp/cc5Oa950.ltrans16.ltrans.o
                                                  /tmp/cc5Oa950.ltrans0.ltrans.o
put_fat                                           build/obj/ff.o (symbol from plugin)
put_fat.part.6.lto_priv.99                        /tmp/cc5Oa950.ltrans12.ltrans.o
                                                  /tmp/cc5Oa950.ltrans9.ltrans.o
                                                  /tmp/cc5Oa950.ltrans3.ltrans.o
putt.lto_priv.174                                 /tmp/cc5Oa950.ltrans16.ltrans.o
                                                  /tmp/cc5Oa950.ltrans0.ltrans.o
pwm12init                                         build/obj/pwm_struct.o (symbol from plugin)
pwm3init                                          /tmp/cc5Oa950.ltrans10.ltrans.o
                                                  build/obj/pwm_struct.o (symbol from plugin)
                                                  /tmp/cc5Oa950.ltrans0.ltrans.o
                                                  build/obj/imu_temp.o (symbol from plugin)
pwm4init                                          build/obj/pwm_struct.o (symbol from plugin)
pwm8init                                          build/obj/pwm_struct.o (symbol from plugin)
pwmChangePeriod                                   build/obj/pwm.o (symbol from plugin)
pwmDisableChannel                                 build/obj/pwm.o (symbol from plugin)
pwmDisableChannelNotification                     build/obj/pwm.o (symbol from plugin)
pwmDisablePeriodicNotification                    build/obj/pwm.o (symbol from plugin)
pwmEnableChannel                                  /tmp/cc5Oa950.ltrans5.ltrans.o
                                                  build/obj/pwm.o (symbol from plugin)
                                                  /tmp/cc5Oa950.ltrans10.ltrans.o
                                                  build/obj/imu_temp.o (symbol from plugin)
                                                  build/obj/shoot_pwm.o (symbol from plugin)
pwmEnableChannelNotification                      build/obj/pwm.o (symbol from plugin)
pwmEnablePeriodicNotification                     build/obj/pwm.o (symbol from plugin)
pwmInit                                           build/obj/pwm.o (symbol from plugin)
                                                  build/obj/hal.o (symbol from plugin)
pwmObjectInit                                     build/obj/pwm.o (symbol from plugin)
                                                  build/obj/pwm_lld.o (symbol from plugin)
pwmStart                                          build/obj/pwm.o (symbol from plugin)
                                                  build/obj/pwm_struct.o (symbol from plugin)
                                                  build/obj/shoot_pwm.o (symbol from plugin)
pwmStop                                           build/obj/pwm.o (symbol from plugin)
pwm_lld_disable_channel                           build/obj/pwm_lld.o (symbol from plugin)
                                                  build/obj/pwm.o (symbol from plugin)
pwm_lld_disable_channel_notification              build/obj/pwm_lld.o (symbol from plugin)
                                                  build/obj/pwm.o (symbol from plugin)
pwm_lld_disable_periodic_notification             build/obj/pwm_lld.o (symbol from plugin)
                                                  build/obj/pwm.o (symbol from plugin)
pwm_lld_enable_channel                            build/obj/pwm_lld.o (symbol from plugin)
                                                  build/obj/pwm.o (symbol from plugin)
pwm_lld_enable_channel_notification               build/obj/pwm_lld.o (symbol from plugin)
                                                  build/obj/pwm.o (symbol from plugin)
pwm_lld_enable_periodic_notification              build/obj/pwm_lld.o (symbol from plugin)
                                                  build/obj/pwm.o (symbol from plugin)
pwm_lld_init                                      build/obj/pwm_lld.o (symbol from plugin)
                                                  build/obj/pwm.o (symbol from plugin)
pwm_lld_serve_interrupt                           /tmp/cc5Oa950.ltrans3.ltrans.o
                                                  build/obj/pwm_lld.o (symbol from plugin)
                                                  /tmp/cc5Oa950.ltrans14.ltrans.o
pwm_lld_start                                     /tmp/cc5Oa950.ltrans3.ltrans.o
                                                  build/obj/pwm_lld.o (symbol from plugin)
                                                  /tmp/cc5Oa950.ltrans10.ltrans.o
                                                  build/obj/pwm.o (symbol from plugin)
pwm_lld_stop                                      build/obj/pwm_lld.o (symbol from plugin)
                                                  build/obj/pwm.o (symbol from plugin)
pwm_shooter_init                                  /tmp/cc5Oa950.ltrans10.ltrans.o
                                                  build/obj/shoot_pwm.o (symbol from plugin)
                                                  /tmp/cc5Oa950.ltrans0.ltrans.o
                                                  build/obj/main.o (symbol from plugin)
read.lto_priv.171                                 /tmp/cc5Oa950.ltrans16.ltrans.o
                                                  /tmp/cc5Oa950.ltrans0.ltrans.o
readt.lto_priv.177                                /tmp/cc5Oa950.ltrans16.ltrans.o
                                                  /tmp/cc5Oa950.ltrans0.ltrans.o
rxend.lto_priv.166                                /tmp/cc5Oa950.ltrans13.ltrans.o
                                                  /tmp/cc5Oa950.ltrans0.ltrans.o
scalbnf                                           /usr/lib/gcc/arm-none-eabi/4.9.3/../../../arm-none-eabi/lib/armv7e-m/fpu/libm.a(lib_a-sf_scalbn.o)
                                                  /usr/lib/gcc/arm-none-eabi/4.9.3/../../../arm-none-eabi/lib/armv7e-m/fpu/libm.a(lib_a-kf_rem_pio2.o)
sdcConnect                                        /tmp/cc5Oa950.ltrans5.ltrans.o
                                                  build/obj/sdc.o (symbol from plugin)
                                                  /tmp/cc5Oa950.ltrans0.ltrans.o
                                                  build/obj/sdlog.o (symbol from plugin)
sdcDisconnect                                     /tmp/cc5Oa950.ltrans16.ltrans.o
                                                  build/obj/sdc.o (symbol from plugin)
                                                  /tmp/cc5Oa950.ltrans0.ltrans.o
sdcErase                                          build/obj/sdc.o (symbol from plugin)
sdcGetAndClearErrors                              build/obj/sdc.o (symbol from plugin)
sdcGetInfo                                        /tmp/cc5Oa950.ltrans16.ltrans.o
                                                  build/obj/sdc.o (symbol from plugin)
                                                  /tmp/cc5Oa950.ltrans0.ltrans.o
sdcInit                                           build/obj/sdc.o (symbol from plugin)
                                                  build/obj/hal.o (symbol from plugin)
sdcObjectInit                                     build/obj/sdc.o (symbol from plugin)
                                                  build/obj/sdc_lld.o (symbol from plugin)
sdcRead                                           /tmp/cc5Oa950.ltrans16.ltrans.o
                                                  build/obj/sdc.o (symbol from plugin)
                                                  /tmp/cc5Oa950.ltrans15.ltrans.o
                                                  /tmp/cc5Oa950.ltrans0.ltrans.o
                                                  build/obj/fatfs_diskio.o (symbol from plugin)
sdcStart                                          build/obj/sdc.o (symbol from plugin)
                                                  build/obj/sdlog.o (symbol from plugin)
sdcStop                                           build/obj/sdc.o (symbol from plugin)
sdcSync                                           /tmp/cc5Oa950.ltrans16.ltrans.o
                                                  build/obj/sdc.o (symbol from plugin)
                                                  /tmp/cc5Oa950.ltrans0.ltrans.o
sdcWrite                                          /tmp/cc5Oa950.ltrans16.ltrans.o
                                                  build/obj/sdc.o (symbol from plugin)
                                                  /tmp/cc5Oa950.ltrans3.ltrans.o
                                                  /tmp/cc5Oa950.ltrans0.ltrans.o
                                                  build/obj/fatfs_diskio.o (symbol from plugin)
sdc_lld_collect_errors.isra.0.lto_priv.205        /tmp/cc5Oa950.ltrans14.ltrans.o
                                                  /tmp/cc5Oa950.ltrans5.ltrans.o
sdc_lld_init                                      build/obj/sdc_lld.o (symbol from plugin)
                                                  build/obj/sdc.o (symbol from plugin)
sdc_lld_is_card_inserted                          /tmp/cc5Oa950.ltrans3.ltrans.o
                                                  build/obj/board.o (symbol from plugin)
                                                  /tmp/cc5Oa950.ltrans0.ltrans.o
                                                  build/obj/sdc.o (symbol from plugin)
sdc_lld_is_write_protected                        /tmp/cc5Oa950.ltrans3.ltrans.o
                                                  build/obj/board.o (symbol from plugin)
                                                  /tmp/cc5Oa950.ltrans0.ltrans.o
                                                  build/obj/fatfs_diskio.o (symbol from plugin)
                                                  build/obj/sdc.o (symbol from plugin)
sdc_lld_read                                      build/obj/sdc_lld.o (symbol from plugin)
                                                  build/obj/sdc.o (symbol from plugin)
sdc_lld_read_aligned                              build/obj/sdc_lld.o (symbol from plugin)
sdc_lld_read_aligned.part.4.lto_priv.202          /tmp/cc5Oa950.ltrans14.ltrans.o
                                                  /tmp/cc5Oa950.ltrans16.ltrans.o
sdc_lld_read_special                              /tmp/cc5Oa950.ltrans14.ltrans.o
                                                  build/obj/sdc_lld.o (symbol from plugin)
                                                  /tmp/cc5Oa950.ltrans5.ltrans.o
                                                  build/obj/sdc.o (symbol from plugin)
sdc_lld_send_cmd_long_crc                         /tmp/cc5Oa950.ltrans14.ltrans.o
                                                  build/obj/sdc_lld.o (symbol from plugin)
                                                  /tmp/cc5Oa950.ltrans5.ltrans.o
                                                  build/obj/sdc.o (symbol from plugin)
sdc_lld_send_cmd_none                             build/obj/sdc_lld.o (symbol from plugin)
                                                  build/obj/sdc.o (symbol from plugin)
sdc_lld_send_cmd_short                            build/obj/sdc_lld.o (symbol from plugin)
                                                  build/obj/sdc.o (symbol from plugin)
sdc_lld_send_cmd_short_crc                        /tmp/cc5Oa950.ltrans14.ltrans.o
                                                  build/obj/sdc_lld.o (symbol from plugin)
                                                  /tmp/cc5Oa950.ltrans5.ltrans.o
                                                  build/obj/sdc.o (symbol from plugin)
sdc_lld_set_bus_mode                              build/obj/sdc_lld.o (symbol from plugin)
                                                  build/obj/sdc.o (symbol from plugin)
sdc_lld_set_data_clk                              build/obj/sdc_lld.o (symbol from plugin)
                                                  build/obj/sdc.o (symbol from plugin)
sdc_lld_start                                     build/obj/sdc_lld.o (symbol from plugin)
                                                  build/obj/sdc.o (symbol from plugin)
sdc_lld_start_clk                                 build/obj/sdc_lld.o (symbol from plugin)
                                                  build/obj/sdc.o (symbol from plugin)
sdc_lld_stop                                      build/obj/sdc_lld.o (symbol from plugin)
                                                  build/obj/sdc.o (symbol from plugin)
sdc_lld_stop_clk                                  build/obj/sdc_lld.o (symbol from plugin)
                                                  build/obj/sdc.o (symbol from plugin)
sdc_lld_sync                                      build/obj/sdc_lld.o (symbol from plugin)
                                                  build/obj/sdc.o (symbol from plugin)
sdc_lld_write                                     build/obj/sdc_lld.o (symbol from plugin)
                                                  build/obj/sdc.o (symbol from plugin)
sdc_lld_write_aligned                             build/obj/sdc_lld.o (symbol from plugin)
sdc_lld_write_aligned.part.5.lto_priv.201         /tmp/cc5Oa950.ltrans14.ltrans.o
                                                  /tmp/cc5Oa950.ltrans16.ltrans.o
sdlog_createFile                                  build/obj/sdlog.o (symbol from plugin)
sdlog_getError                                    build/obj/sdlog.o (symbol from plugin)
sdlog_init                                        build/obj/sdlog.o (symbol from plugin)
                                                  build/obj/main.o (symbol from plugin)
sdlog_put                                         build/obj/sdlog.o (symbol from plugin)
sdlog_thread.lto_priv.130                         /tmp/cc5Oa950.ltrans10.ltrans.o
                                                  /tmp/cc5Oa950.ltrans0.ltrans.o
sduConfigureHookI                                 build/obj/serial_usb.o (symbol from plugin)
                                                  build/obj/usbcfg.o (symbol from plugin)
sduDataReceived                                   /tmp/cc5Oa950.ltrans4.ltrans.o
                                                  build/obj/serial_usb.o (symbol from plugin)
                                                  /tmp/cc5Oa950.ltrans10.ltrans.o
                                                  build/obj/usbcfg.o (symbol from plugin)
sduDataTransmitted                                /tmp/cc5Oa950.ltrans4.ltrans.o
                                                  build/obj/serial_usb.o (symbol from plugin)
                                                  /tmp/cc5Oa950.ltrans10.ltrans.o
                                                  build/obj/usbcfg.o (symbol from plugin)
sduDisconnectI                                    build/obj/serial_usb.o (symbol from plugin)
                                                  build/obj/usbcfg.o (symbol from plugin)
sduInit                                           build/obj/serial_usb.o (symbol from plugin)
                                                  build/obj/hal.o (symbol from plugin)
sduInterruptTransmitted                           /tmp/cc5Oa950.ltrans4.ltrans.o
                                                  build/obj/serial_usb.o (symbol from plugin)
                                                  /tmp/cc5Oa950.ltrans10.ltrans.o
                                                  build/obj/usbcfg.o (symbol from plugin)
sduObjectInit                                     build/obj/serial_usb.o (symbol from plugin)
                                                  build/obj/shellcfg.o (symbol from plugin)
sduRequestsHook                                   /tmp/cc5Oa950.ltrans4.ltrans.o
                                                  build/obj/serial_usb.o (symbol from plugin)
                                                  /tmp/cc5Oa950.ltrans0.ltrans.o
                                                  build/obj/usbcfg.o (symbol from plugin)
sduSOFHookI                                       build/obj/serial_usb.o (symbol from plugin)
                                                  build/obj/usbcfg.o (symbol from plugin)
sduStart                                          build/obj/serial_usb.o (symbol from plugin)
                                                  build/obj/shellcfg.o (symbol from plugin)
sduStop                                           build/obj/serial_usb.o (symbol from plugin)
sdu_start_receive.lto_priv.104                    /tmp/cc5Oa950.ltrans16.ltrans.o
                                                  /tmp/cc5Oa950.ltrans10.ltrans.o
                                                  /tmp/cc5Oa950.ltrans4.ltrans.o
serusbcfg                                         build/obj/usbcfg.o (symbol from plugin)
                                                  build/obj/shellcfg.o (symbol from plugin)
set_angle                                         build/obj/adis16265.o (symbol from plugin)
shellCreate                                       build/obj/shell.o (symbol from plugin)
shellCreateStatic                                 build/obj/shell.o (symbol from plugin)
                                                  build/obj/shellcfg.o (symbol from plugin)
shellExit                                         build/obj/shell.o (symbol from plugin)
shellGetLine                                      build/obj/shell.o (symbol from plugin)
shellInit                                         build/obj/shell.o (symbol from plugin)
                                                  build/obj/shellcfg.o (symbol from plugin)
shellStart                                        build/obj/shellcfg.o (symbol from plugin)
                                                  build/obj/main.o (symbol from plugin)
shell_terminated                                  /tmp/cc5Oa950.ltrans0.ltrans.o
                                                  build/obj/shell.o (symbol from plugin)
                                                  /tmp/cc5Oa950.ltrans12.ltrans.o
shell_thread.lto_priv.160                         /tmp/cc5Oa950.ltrans12.ltrans.o
                                                  /tmp/cc5Oa950.ltrans0.ltrans.o
sinf                                              /usr/lib/gcc/arm-none-eabi/4.9.3/../../../arm-none-eabi/lib/armv7e-m/fpu/libm.a(lib_a-sf_sin.o)
                                                  /tmp/cc5Oa950.ltrans13.ltrans.o
                                                  /tmp/cc5Oa950.ltrans11.ltrans.o
sof_handler.lto_priv.169                          /tmp/cc5Oa950.ltrans10.ltrans.o
                                                  /tmp/cc5Oa950.ltrans0.ltrans.o
spiAcquireBus                                     /tmp/cc5Oa950.ltrans4.ltrans.o
                                                  build/obj/spi.o (symbol from plugin)
                                                  /tmp/cc5Oa950.ltrans11.ltrans.o
                                                  /tmp/cc5Oa950.ltrans2.ltrans.o
                                                  build/obj/adis16265.o (symbol from plugin)
                                                  build/obj/ist8310.o (symbol from plugin)
                                                  build/obj/mpu6500.o (symbol from plugin)
                                                  build/obj/tft_display.o (symbol from plugin)
spiExchange                                       build/obj/spi.o (symbol from plugin)
spiIgnore                                         build/obj/spi.o (symbol from plugin)
spiInit                                           build/obj/spi.o (symbol from plugin)
                                                  build/obj/hal.o (symbol from plugin)
spiObjectInit                                     build/obj/spi.o (symbol from plugin)
                                                  build/obj/spi_lld.o (symbol from plugin)
spiReceive                                        /tmp/cc5Oa950.ltrans4.ltrans.o
                                                  build/obj/spi.o (symbol from plugin)
                                                  /tmp/cc5Oa950.ltrans11.ltrans.o
                                                  /tmp/cc5Oa950.ltrans2.ltrans.o
                                                  build/obj/adis16265.o (symbol from plugin)
                                                  build/obj/ist8310.o (symbol from plugin)
                                                  build/obj/mpu6500.o (symbol from plugin)
spiReleaseBus                                     /tmp/cc5Oa950.ltrans4.ltrans.o
                                                  build/obj/spi.o (symbol from plugin)
                                                  /tmp/cc5Oa950.ltrans11.ltrans.o
                                                  /tmp/cc5Oa950.ltrans2.ltrans.o
                                                  build/obj/adis16265.o (symbol from plugin)
                                                  build/obj/ist8310.o (symbol from plugin)
                                                  build/obj/mpu6500.o (symbol from plugin)
                                                  build/obj/tft_display.o (symbol from plugin)
spiSelect                                         /tmp/cc5Oa950.ltrans4.ltrans.o
                                                  build/obj/spi.o (symbol from plugin)
                                                  /tmp/cc5Oa950.ltrans11.ltrans.o
                                                  /tmp/cc5Oa950.ltrans2.ltrans.o
                                                  build/obj/adis16265.o (symbol from plugin)
                                                  build/obj/ist8310.o (symbol from plugin)
                                                  build/obj/mpu6500.o (symbol from plugin)
                                                  build/obj/tft_display.o (symbol from plugin)
spiSend                                           /tmp/cc5Oa950.ltrans4.ltrans.o
                                                  build/obj/spi.o (symbol from plugin)
                                                  /tmp/cc5Oa950.ltrans11.ltrans.o
                                                  /tmp/cc5Oa950.ltrans2.ltrans.o
                                                  build/obj/adis16265.o (symbol from plugin)
                                                  build/obj/ist8310.o (symbol from plugin)
                                                  build/obj/mpu6500.o (symbol from plugin)
                                                  build/obj/tft_display.o (symbol from plugin)
spiStart                                          /tmp/cc5Oa950.ltrans4.ltrans.o
                                                  build/obj/spi.o (symbol from plugin)
                                                  /tmp/cc5Oa950.ltrans11.ltrans.o
                                                  /tmp/cc5Oa950.ltrans0.ltrans.o
                                                  build/obj/adis16265.o (symbol from plugin)
                                                  build/obj/mpu6500.o (symbol from plugin)
                                                  build/obj/tft_display.o (symbol from plugin)
spiStartExchange                                  build/obj/spi.o (symbol from plugin)
spiStartIgnore                                    build/obj/spi.o (symbol from plugin)
spiStartReceive                                   build/obj/spi.o (symbol from plugin)
spiStartSend                                      build/obj/spi.o (symbol from plugin)
spiStop                                           build/obj/spi.o (symbol from plugin)
spiUnselect                                       /tmp/cc5Oa950.ltrans4.ltrans.o
                                                  build/obj/spi.o (symbol from plugin)
                                                  /tmp/cc5Oa950.ltrans11.ltrans.o
                                                  /tmp/cc5Oa950.ltrans2.ltrans.o
                                                  build/obj/adis16265.o (symbol from plugin)
                                                  build/obj/ist8310.o (symbol from plugin)
                                                  build/obj/mpu6500.o (symbol from plugin)
                                                  build/obj/tft_display.o (symbol from plugin)
spi_lld_exchange                                  build/obj/spi_lld.o (symbol from plugin)
                                                  build/obj/spi.o (symbol from plugin)
spi_lld_ignore                                    build/obj/spi_lld.o (symbol from plugin)
                                                  build/obj/spi.o (symbol from plugin)
spi_lld_init                                      build/obj/spi_lld.o (symbol from plugin)
                                                  build/obj/spi.o (symbol from plugin)
spi_lld_polled_exchange                           build/obj/spi_lld.o (symbol from plugin)
spi_lld_receive                                   build/obj/spi_lld.o (symbol from plugin)
                                                  build/obj/spi.o (symbol from plugin)
spi_lld_select                                    build/obj/spi_lld.o (symbol from plugin)
                                                  build/obj/spi.o (symbol from plugin)
spi_lld_send                                      build/obj/spi_lld.o (symbol from plugin)
                                                  build/obj/spi.o (symbol from plugin)
spi_lld_serve_rx_interrupt.lto_priv.199           /tmp/cc5Oa950.ltrans14.ltrans.o
                                                  /tmp/cc5Oa950.ltrans4.ltrans.o
spi_lld_serve_tx_interrupt.lto_priv.200           /tmp/cc5Oa950.ltrans14.ltrans.o
                                                  /tmp/cc5Oa950.ltrans4.ltrans.o
spi_lld_start                                     build/obj/spi_lld.o (symbol from plugin)
                                                  build/obj/spi.o (symbol from plugin)
spi_lld_stop                                      build/obj/spi_lld.o (symbol from plugin)
                                                  build/obj/spi.o (symbol from plugin)
spi_lld_unselect                                  build/obj/spi_lld.o (symbol from plugin)
                                                  build/obj/spi.o (symbol from plugin)
sqrtf                                             /usr/lib/gcc/arm-none-eabi/4.9.3/../../../arm-none-eabi/lib/armv7e-m/fpu/libm.a(lib_a-wf_sqrt.o)
                                                  /tmp/cc5Oa950.ltrans13.ltrans.o
                                                  /tmp/cc5Oa950.ltrans11.ltrans.o
stGetAlarm                                        build/obj/st.o (symbol from plugin)
stInit                                            build/obj/st.o (symbol from plugin)
                                                  build/obj/hal.o (symbol from plugin)
stSetAlarm                                        /tmp/cc5Oa950.ltrans1.ltrans.o
                                                  build/obj/st.o (symbol from plugin)
                                                  /tmp/cc5Oa950.ltrans6.ltrans.o
                                                  build/obj/chvt.o (symbol from plugin)
                                                  build/obj/chsys.o (symbol from plugin)
stStartAlarm                                      build/obj/st.o (symbol from plugin)
                                                  build/obj/chvt.o (symbol from plugin)
stStopAlarm                                       build/obj/st.o (symbol from plugin)
                                                  build/obj/chvt.o (symbol from plugin)
                                                  build/obj/chsys.o (symbol from plugin)
st_lld_init                                       build/obj/st_lld.o (symbol from plugin)
                                                  build/obj/st.o (symbol from plugin)
stm32_clock_init                                  build/obj/hal_lld.o (symbol from plugin)
                                                  build/obj/board.o (symbol from plugin)
strcmp                                            /usr/lib/gcc/arm-none-eabi/4.9.3/../../../arm-none-eabi/lib/armv7e-m/fpu/libg.a(lib_a-strcmp.o)
                                                  /tmp/cc5Oa950.ltrans12.ltrans.o
                                                  /tmp/cc5Oa950.ltrans2.ltrans.o
strlen                                            /usr/lib/gcc/arm-none-eabi/4.9.3/../../../arm-none-eabi/lib/armv7e-m/fpu/libg.a(lib_a-strlen.o)
                                                  /tmp/cc5Oa950.ltrans13.ltrans.o
strpbrk                                           /usr/lib/gcc/arm-none-eabi/4.9.3/../../../arm-none-eabi/lib/armv7e-m/fpu/libg.a(lib_a-strpbrk.o)
                                                  /tmp/cc5Oa950.ltrans9.ltrans.o
strspn                                            /usr/lib/gcc/arm-none-eabi/4.9.3/../../../arm-none-eabi/lib/armv7e-m/fpu/libg.a(lib_a-strspn.o)
                                                  /tmp/cc5Oa950.ltrans9.ltrans.o
subparam_name.lto_priv.118                        /tmp/cc5Oa950.ltrans10.ltrans.o
                                                  /tmp/cc5Oa950.ltrans13.ltrans.o
subparams.lto_priv.112                            /tmp/cc5Oa950.ltrans10.ltrans.o
                                                  /tmp/cc5Oa950.ltrans13.ltrans.o
subparams_total.lto_priv.115                      /tmp/cc5Oa950.ltrans10.ltrans.o
                                                  /tmp/cc5Oa950.ltrans13.ltrans.o
sync_window.part.1.lto_priv.89                    /tmp/cc5Oa950.ltrans12.ltrans.o
                                                  /tmp/cc5Oa950.ltrans15.ltrans.o
                                                  /tmp/cc5Oa950.ltrans3.ltrans.o
tanf                                              /usr/lib/gcc/arm-none-eabi/4.9.3/../../../arm-none-eabi/lib/armv7e-m/fpu/libm.a(lib_a-sf_tan.o)
                                                  /tmp/cc5Oa950.ltrans8.ltrans.o
tempControllerInit                                build/obj/imu_temp.o (symbol from plugin)
                                                  build/obj/main.o (symbol from plugin)
tempPID1                                          build/obj/imu_temp.o (symbol from plugin)
tempPID_Init                                      build/obj/imu_temp.o (symbol from plugin)
tempPID_Update                                    build/obj/imu_temp.o (symbol from plugin)
text                                              build/obj/tft_display.o (symbol from plugin)
text_color                                        build/obj/tft_display.o (symbol from plugin)
text_color_prev                                   build/obj/tft_display.o (symbol from plugin)
text_prev                                         build/obj/tft_display.o (symbol from plugin)
tft_char_is_changed                               build/obj/tft_display.o (symbol from plugin)
tft_clear                                         build/obj/tft_display.o (symbol from plugin)
tft_clear_line                                    build/obj/tft_display.o (symbol from plugin)
tft_config                                        build/obj/tft_display.o (symbol from plugin)
tft_disable                                       build/obj/tft_display.o (symbol from plugin)
tft_enable                                        build/obj/tft_display.o (symbol from plugin)
tft_enabled                                       build/obj/tft_display.o (symbol from plugin)
tft_fill_color                                    build/obj/tft_display.o (symbol from plugin)
tft_force_clear                                   build/obj/tft_display.o (symbol from plugin)
tft_get_bg_color                                  build/obj/tft_display.o (symbol from plugin)
tft_get_max_x_char                                build/obj/tft_display.o (symbol from plugin)
tft_get_max_y_char                                build/obj/tft_display.o (symbol from plugin)
tft_get_orientation                               build/obj/tft_display.o (symbol from plugin)
tft_get_special_text_color                        build/obj/tft_display.o (symbol from plugin)
tft_get_text_color                                build/obj/tft_display.o (symbol from plugin)
tft_init                                          build/obj/tft_display.o (symbol from plugin)
tft_orientation                                   build/obj/tft_display.o (symbol from plugin)
tft_printf                                        build/obj/tft_display.o (symbol from plugin)
tft_prints_enable                                 build/obj/tft_display.o (symbol from plugin)
tft_put_pixel                                     build/obj/tft_display.o (symbol from plugin)
tft_reset                                         build/obj/tft_display.o (symbol from plugin)
tft_set_bg_color                                  build/obj/tft_display.o (symbol from plugin)
tft_set_char_pos                                  build/obj/tft_display.o (symbol from plugin)
tft_set_orientation                               build/obj/tft_display.o (symbol from plugin)
tft_set_pixel_pos                                 build/obj/tft_display.o (symbol from plugin)
tft_set_special_color                             build/obj/tft_display.o (symbol from plugin)
tft_set_text_color                                build/obj/tft_display.o (symbol from plugin)
tft_toggle                                        build/obj/tft_display.o (symbol from plugin)
tft_update                                        build/obj/tft_display.o (symbol from plugin)
tft_write_command                                 build/obj/tft_display.o (symbol from plugin)
tft_write_data                                    build/obj/tft_display.o (symbol from plugin)
uartInit                                          build/obj/uart.o (symbol from plugin)
                                                  build/obj/hal.o (symbol from plugin)
uartObjectInit                                    build/obj/uart.o (symbol from plugin)
                                                  build/obj/uart_lld.o (symbol from plugin)
uartReceiveTimeout                                build/obj/uart.o (symbol from plugin)
uartSendFullTimeout                               build/obj/uart.o (symbol from plugin)
uartSendTimeout                                   build/obj/uart.o (symbol from plugin)
uartStart                                         build/obj/uart.o (symbol from plugin)
                                                  build/obj/params.o (symbol from plugin)
                                                  build/obj/dbus.o (symbol from plugin)
uartStartReceive                                  build/obj/uart.o (symbol from plugin)
                                                  build/obj/params.o (symbol from plugin)
                                                  build/obj/dbus.o (symbol from plugin)
uartStartReceiveI                                 build/obj/uart.o (symbol from plugin)
uartStartSend                                     build/obj/uart.o (symbol from plugin)
                                                  build/obj/params.o (symbol from plugin)
uartStartSend.constprop.40                        /tmp/cc5Oa950.ltrans15.ltrans.o
                                                  /tmp/cc5Oa950.ltrans13.ltrans.o
uartStartSendI                                    build/obj/uart.o (symbol from plugin)
uartStop                                          build/obj/uart.o (symbol from plugin)
uartStopReceive                                   build/obj/uart.o (symbol from plugin)
                                                  build/obj/dbus.o (symbol from plugin)
uartStopReceiveI                                  build/obj/uart.o (symbol from plugin)
uartStopSend                                      build/obj/uart.o (symbol from plugin)
                                                  build/obj/params.o (symbol from plugin)
uartStopSend.constprop.38                         /tmp/cc5Oa950.ltrans15.ltrans.o
                                                  /tmp/cc5Oa950.ltrans13.ltrans.o
uartStopSendI                                     build/obj/uart.o (symbol from plugin)
uart_dbus_thread.lto_priv.156                     /tmp/cc5Oa950.ltrans8.ltrans.o
                                                  /tmp/cc5Oa950.ltrans0.ltrans.o
uart_lld_init                                     build/obj/uart_lld.o (symbol from plugin)
                                                  build/obj/uart.o (symbol from plugin)
uart_lld_start                                    /tmp/cc5Oa950.ltrans3.ltrans.o
                                                  build/obj/uart_lld.o (symbol from plugin)
                                                  /tmp/cc5Oa950.ltrans8.ltrans.o
                                                  /tmp/cc5Oa950.ltrans0.ltrans.o
                                                  build/obj/uart.o (symbol from plugin)
uart_lld_start_receive                            /tmp/cc5Oa950.ltrans3.ltrans.o
                                                  build/obj/uart_lld.o (symbol from plugin)
                                                  /tmp/cc5Oa950.ltrans13.ltrans.o
                                                  /tmp/cc5Oa950.ltrans8.ltrans.o
                                                  build/obj/uart.o (symbol from plugin)
uart_lld_start_send                               build/obj/uart_lld.o (symbol from plugin)
                                                  build/obj/uart.o (symbol from plugin)
uart_lld_stop                                     build/obj/uart_lld.o (symbol from plugin)
                                                  build/obj/uart.o (symbol from plugin)
uart_lld_stop_receive                             build/obj/uart_lld.o (symbol from plugin)
                                                  build/obj/uart.o (symbol from plugin)
uart_lld_stop_send                                build/obj/uart_lld.o (symbol from plugin)
                                                  build/obj/uart.o (symbol from plugin)
usbDisableEndpointsI                              build/obj/usb.o (symbol from plugin)
usbInit                                           build/obj/usb.o (symbol from plugin)
                                                  build/obj/hal.o (symbol from plugin)
usbInitEndpointI                                  /tmp/cc5Oa950.ltrans4.ltrans.o
                                                  build/obj/usb.o (symbol from plugin)
                                                  /tmp/cc5Oa950.ltrans10.ltrans.o
                                                  build/obj/usbcfg.o (symbol from plugin)
usbObjectInit                                     build/obj/usb.o (symbol from plugin)
                                                  build/obj/usb_lld.o (symbol from plugin)
usbStallReceiveI                                  build/obj/usb.o (symbol from plugin)
usbStallTransmitI                                 build/obj/usb.o (symbol from plugin)
usbStart                                          build/obj/usb.o (symbol from plugin)
                                                  build/obj/shellcfg.o (symbol from plugin)
usbStartReceiveI                                  /tmp/cc5Oa950.ltrans4.ltrans.o
                                                  build/obj/usb.o (symbol from plugin)
                                                  /tmp/cc5Oa950.ltrans16.ltrans.o
                                                  /tmp/cc5Oa950.ltrans6.ltrans.o
                                                  build/obj/serial_usb.o (symbol from plugin)
usbStartTransmitI                                 /tmp/cc5Oa950.ltrans4.ltrans.o
                                                  build/obj/usb.o (symbol from plugin)
                                                  /tmp/cc5Oa950.ltrans10.ltrans.o
                                                  /tmp/cc5Oa950.ltrans6.ltrans.o
                                                  build/obj/serial_usb.o (symbol from plugin)
usbStop                                           build/obj/usb.o (symbol from plugin)
usb_event.lto_priv.167                            /tmp/cc5Oa950.ltrans10.ltrans.o
                                                  /tmp/cc5Oa950.ltrans0.ltrans.o
usb_lld_clear_in                                  build/obj/usb_lld.o (symbol from plugin)
                                                  build/obj/usb.o (symbol from plugin)
usb_lld_clear_out                                 build/obj/usb_lld.o (symbol from plugin)
                                                  build/obj/usb.o (symbol from plugin)
usb_lld_disable_endpoints                         build/obj/usb_lld.o (symbol from plugin)
                                                  build/obj/usb.o (symbol from plugin)
usb_lld_get_status_in                             build/obj/usb_lld.o (symbol from plugin)
                                                  build/obj/usb.o (symbol from plugin)
usb_lld_get_status_out                            build/obj/usb_lld.o (symbol from plugin)
                                                  build/obj/usb.o (symbol from plugin)
usb_lld_init                                      build/obj/usb_lld.o (symbol from plugin)
                                                  build/obj/usb.o (symbol from plugin)
usb_lld_init_endpoint                             build/obj/usb_lld.o (symbol from plugin)
                                                  build/obj/usb.o (symbol from plugin)
usb_lld_pump                                      /tmp/cc5Oa950.ltrans14.ltrans.o
                                                  build/obj/usb_lld.o (symbol from plugin)
                                                  /tmp/cc5Oa950.ltrans0.ltrans.o
usb_lld_read_setup                                build/obj/usb_lld.o (symbol from plugin)
                                                  build/obj/usb.o (symbol from plugin)
usb_lld_reset                                     build/obj/usb_lld.o (symbol from plugin)
                                                  build/obj/usb.o (symbol from plugin)
usb_lld_serve_interrupt.lto_priv.189              /tmp/cc5Oa950.ltrans7.ltrans.o
                                                  /tmp/cc5Oa950.ltrans14.ltrans.o
usb_lld_set_address                               build/obj/usb_lld.o (symbol from plugin)
                                                  build/obj/usb.o (symbol from plugin)
usb_lld_stall_in                                  build/obj/usb_lld.o (symbol from plugin)
                                                  build/obj/usb.o (symbol from plugin)
usb_lld_stall_out                                 build/obj/usb_lld.o (symbol from plugin)
                                                  build/obj/usb.o (symbol from plugin)
usb_lld_start                                     build/obj/usb_lld.o (symbol from plugin)
                                                  build/obj/usb.o (symbol from plugin)
usb_lld_start_in                                  /tmp/cc5Oa950.ltrans14.ltrans.o
                                                  build/obj/usb_lld.o (symbol from plugin)
                                                  /tmp/cc5Oa950.ltrans7.ltrans.o
                                                  /tmp/cc5Oa950.ltrans4.ltrans.o
                                                  build/obj/usb.o (symbol from plugin)
usb_lld_start_out                                 /tmp/cc5Oa950.ltrans14.ltrans.o
                                                  build/obj/usb_lld.o (symbol from plugin)
                                                  /tmp/cc5Oa950.ltrans7.ltrans.o
                                                  /tmp/cc5Oa950.ltrans4.ltrans.o
                                                  build/obj/usb.o (symbol from plugin)
usb_lld_stop                                      build/obj/usb_lld.o (symbol from plugin)
                                                  build/obj/usb.o (symbol from plugin)
usbcfg                                            build/obj/usbcfg.o (symbol from plugin)
                                                  build/obj/shellcfg.o (symbol from plugin)
validate.constprop.29                             /tmp/cc5Oa950.ltrans15.ltrans.o
                                                  /tmp/cc5Oa950.ltrans10.ltrans.o
                                                  /tmp/cc5Oa950.ltrans9.ltrans.o
write.lto_priv.170                                /tmp/cc5Oa950.ltrans16.ltrans.o
                                                  /tmp/cc5Oa950.ltrans0.ltrans.o
writet.lto_priv.176                               /tmp/cc5Oa950.ltrans16.ltrans.o
                                                  /tmp/cc5Oa950.ltrans0.ltrans.o
yaw_Kd                                            build/obj/adis16265.o (symbol from plugin)
yaw_Ki                                            build/obj/adis16265.o (symbol from plugin)
yaw_Kp                                            build/obj/adis16265.o (symbol from plugin)
yaw_axis_pid_cal                                  build/obj/adis16265.o (symbol from plugin)
yaw_pid_output_angle                              build/obj/adis16265.o (symbol from plugin)
yaw_pos_name                                      build/obj/gimbal.o (symbol from plugin)
yaw_pre_error                                     build/obj/adis16265.o (symbol from plugin)
yaw_temp_derivative                               build/obj/adis16265.o (symbol from plugin)
yaw_temp_integral                                 build/obj/adis16265.o (symbol from plugin)
